(lp0
(i__main__
Place
p1
(dp2
S'category'
p3
(lp4
VRestaurants
p5
asS'rating'
p6
V3
p7
sS'name'
p8
VJaffer Bhai's Delhi Darbar
p9
sS'url'
p10
Vhttp://mumbai.burrp.com/listing/jaffer-bhais-delhi-darbar_grant-road_mumbai_restaurants/132164277
p11
sS'region'
p12
VGrant Road
p13
sS'phone'
p14
(lp15
V23875656
p16
aV 23875696
p17
aV 23875697
p18
aV 23875698
p19
asS'cost'
p20
V2
p21
sS'addr'
p22
V195/197, Patthe Bapu Rao Marg, Grant Road, Mumbai
p23
sba(i__main__
Place
p24
(dp25
g3
(lp26
VRestaurants
p27
asg6
V4
p28
sg8
VSudama
p29
sg10
Vhttp://mumbai.burrp.com/listing/sudama_grant-road_mumbai_restaurants/16659643
p30
sg12
VGrant Road
p31
sg14
(lp32
V23873311
p33
aV 23892304
p34
aV 66293333
p35
asg20
g21
sg22
VGround Floor, 96/98, Sleater Road, Nana Chowk, Grant Road, Mumbai
p36
sba(i__main__
Place
p37
(dp38
g3
(lp39
VRestaurants
p40
aV Outdoor Caterers
p41
aV Juice Parlours
p42
aV Fast Food Shops
p43
asg6
V5
p44
sg8
VPejas Pure Veg Restaurant
p45
sg10
Vhttp://mumbai.burrp.com/listing/pejas-pure-veg-restaurant_grant-road_mumbai_restaurants-outdoor-caterers-juice-parlours/1961358613
p46
sg12
VGrant Road
p47
sg14
(lp48
V23008401
p49
asg20
V0
p50
sg22
V 406/410, Laxmi Niwas, M.S.Ali Road, Grant Road, Mumbai
p51
sba(i__main__
Place
p52
(dp53
g3
(lp54
VRestaurants
p55
asg6
g44
sg8
VGeeta Bhavan
p56
sg10
Vhttp://mumbai.burrp.com/listing/geeta-bhavan_grant-road_mumbai_restaurants/192116217
p57
sg12
VGrant Road
p58
sg14
(lp59
V23093895
p60
asg20
g50
sg22
VBuilding 4, Navjivan Society, Lamington Road, Grant Road, Mumbai
p61
sba(i__main__
Place
p62
(dp63
g3
(lp64
VRestaurants
p65
asg6
g28
sg8
VShetty Veg Plaza
p66
sg10
Vhttp://mumbai.burrp.com/listing/shetty-veg-plaza_grant-road_mumbai_restaurants/12455485
p67
sg12
VGrant Road
p68
sg14
(lp69
V23876279
p70
asg20
g50
sg22
VNess Baug, Nana Chowk, Grant Road, Mumbai
p71
sba(i__main__
Place
p72
(dp73
g3
(lp74
VRestaurants
p75
aV Bars & Pubs
p76
asg6
g28
sg8
VChicken Centre
p77
sg10
Vhttp://mumbai.burrp.com/listing/chicken-centre_grant-road_mumbai_restaurants-bars-pubs/132110277
p78
sg12
VGrant Road
p79
sg14
(lp80
V23806118
p81
aV 23805775
p82
aV 23805422
p83
asg20
g21
sg22
VWarden Court, August Kranti Marg, Grant Road, Mumbai
p84
sba(i__main__
Place
p85
(dp86
g3
(lp87
VBars & Pubs
p88
aV Restaurants
p89
asg6
g7
sg8
VThe Flute
p90
sg10
Vhttp://mumbai.burrp.com/listing/the-flute_grant-road_mumbai_bars-pubs-restaurants/1224456287
p91
sg12
VGrant Road
p92
sg14
(lp93
V66293333
p94
aV 9833258749
p95
aV 9930453921
p96
aV 9619597111
p97
asg20
g7
sg22
V96/98, Sleater Road, Nana Chowk, Grant Road, Mumbai
p98
sba(i__main__
Place
p99
(dp100
g3
(lp101
VRestaurants
p102
asg6
g50
sg8
VSupriya Bar & Restraunt
p103
sg10
Vhttp://mumbai.burrp.com/listing/supriya-bar-restraunt_grant-road_mumbai_restaurants/1539958356
p104
sg12
VGrant Road
p105
sg14
(lp106
V23809901
p107
aV 23886033
p108
aV 9833440947
p109
asg20
g50
sg22
VShiren  Mansion , N V Marg, Grant Road, Mumbai
p110
sba(i__main__
Place
p111
(dp112
g3
(lp113
VRestaurants
p114
asg6
g50
sg8
VKinara Restaurant And Bar
p115
sg10
Vhttp://mumbai.burrp.com/listing/kinara-restaurant-and-bar_grant-road_mumbai_restaurants/1579976752
p116
sg12
VGrant Road
p117
sg14
(lp118
V23819788
p119
aV 23880360
p120
asg20
g50
sg22
VShop No 183, Javaji Dadaji Marg, Grant Road, Mumbai
p121
sba(i__main__
Place
p122
(dp123
g3
(lp124
VRestaurants
p125
asg6
g50
sg8
VSri Krishna
p126
sg10
Vhttp://mumbai.burrp.com/listing/sri-krishna_grant-road_mumbai_restaurants/15858851
p127
sg12
VGrant Road
p128
sg14
(lp129
V23867544
p130
aV 23827326
p131
asg20
g21
sg22
VNew Municipal Building, Joban Putra Compound, Grant Road, Mumbai
p132
sba(i__main__
Place
p133
(dp134
g3
(lp135
VRestaurants
p136
asg6
g50
sg8
VGreat U P Restaurant
p137
sg10
Vhttp://mumbai.burrp.com/listing/great-u-p-restaurant_grant-road_mumbai_restaurants/1939971316
p138
sg12
VGrant Road
p139
sg14
(lp140
V23808820
p141
asg20
g50
sg22
VMaulana Shaukat Ali Rd, Grant Road, Mumbai
p142
sba(i__main__
Place
p143
(dp144
g3
(lp145
VRestaurants
p146
asg6
g50
sg8
VPejas Restaurant & Fast Food
p147
sg10
Vhttp://mumbai.burrp.com/listing/pejas-restaurant-fast-food_grant-road_mumbai_restaurants/1799978930
p148
sg12
VGrant Road
p149
sg14
(lp150
V23008401
p151
aV 23013340
p152
asg20
g50
sg22
VLaxmi Niwas, 406/410, M S Ali Road, Grant Road, Mumbai
p153
sba(i__main__
Place
p154
(dp155
g3
(lp156
VRestaurants
p157
asg6
g50
sg8
VPopular Restaurant
p158
sg10
Vhttp://mumbai.burrp.com/listing/popular-restaurant_grant-road_mumbai_restaurants/1899979920
p159
sg12
VGrant Road
p160
sg14
(lp161
V23891862
p162
aV 66394762
p163
asg20
g50
sg22
VShop No 199, Baba Chawl, Khetwadi Back Road, 13th Lane, Next To Parsi Temple, Grant Road, Mumbai
p164
sba(i__main__
Place
p165
(dp166
g3
(lp167
VRestaurants
p168
asg6
V1
p169
sg8
VBachuseth Ki Wadi
p170
sg10
Vhttp://mumbai.burrp.com/listing/bachuseth-ki-wadi_grant-road_mumbai_restaurants/155103554
p171
sg12
VGrant Road
p172
sg14
(lp173
V23070409
p174
asg20
g50
sg22
VSayeed Seekh Kabab Centre, RS Nimkar Marg, 52/58 Bachuseth Ki Wadi, Shop No 7, Grant Road, Mumbai
p175
sba(i__main__
Place
p176
(dp177
g3
(lp178
VRestaurants
p179
asg6
g50
sg8
VHotel Leeladhar
p180
sg10
Vhttp://mumbai.burrp.com/listing/hotel-leeladhar_grant-road_mumbai_restaurants/142120267
p181
sg12
VGrant Road
p182
sg14
(lp183
V23809904
p184
asg20
g50
sg22
VPahelvi Building, Opposite DB Marg Police Station, Lamington Road, Grant Road, Mumbai
p185
sba(i__main__
Place
p186
(dp187
g3
(lp188
VRestaurants
p189
asg6
g50
sg8
VModern Lunch Home
p190
sg10
Vhttp://mumbai.burrp.com/listing/modern-lunch-home_grant-road_mumbai_restaurants/158130851
p191
sg12
VGrant Road
p192
sg14
(lp193
V23098708
p194
asg20
g50
sg22
V184, Lamington Road, Next to Minerva Cinema, Grant Road, Mumbai
p195
sba(i__main__
Place
p196
(dp197
g3
(lp198
VRestaurants
p199
aV Bars & Pubs
p200
asg6
g50
sg8
VAmantran
p201
sg10
Vhttp://mumbai.burrp.com/listing/amantran_grant-road_mumbai_restaurants-bars-pubs/176141633
p202
sg12
VGrant Road
p203
sg14
(lp204
V23871491
p205
aV 23821458
p206
asg20
g50
sg22
V44, Proctor Road, Grant Road Bridge (E), Grant Road, Mumbai
p207
sba(i__main__
Place
p208
(dp209
g3
(lp210
VRestaurants
p211
asg6
g50
sg8
VMalhar Restaurant
p212
sg10
Vhttp://mumbai.burrp.com/listing/malhar-restaurant_grant-road_mumbai_restaurants/179168930
p213
sg12
VGrant Road
p214
sg14
(lp215
V23808888
p216
asg20
g50
sg22
VM.S. Ali Road, Grant Road, Mumbai
p217
sba(i__main__
Place
p218
(dp219
g3
(lp220
VRestaurants
p221
asg6
g50
sg8
VSantosh
p222
sg10
Vhttp://mumbai.burrp.com/listing/santosh_grant-road_mumbai_restaurants/135722574
p223
sg12
VGrant Road
p224
sg14
(lp225
V23882173
p226
asg20
g169
sg22
V22 Shirin Mansion, 56 Nausir Bharucha Marg, Opposite Grand Road Station East, Grant Road, Mumbai
p227
sba(i__main__
Place
p228
(dp229
g3
(lp230
VRestaurants
p231
aV Cafes
p232
asg6
g50
sg8
VCafe Sunrise
p233
sg10
Vhttp://mumbai.burrp.com/listing/cafe-sunrise_grant-road_mumbai_restaurants-cafes/136722673
p234
sg12
VGrant Road
p235
sg14
(lp236
V23070316
p237
asg20
g50
sg22
V197/a, Premji Marg, Lamington Road, Opposite Grant Road Station East, Grant Road, Mumbai
p238
sba(i__main__
Place
p239
(dp240
g3
(lp241
VBars & Pubs
p242
aV Restaurants
p243
asg6
g50
sg8
VSupriya Restaurant & Bar
p244
sg10
Vhttp://mumbai.burrp.com/listing/supriya-restaurant-bar_grant-road_mumbai_bars-pubs-restaurants/191818118
p245
sg12
VGrant Road
p246
sg14
(lp247
V23809901
p248
aV 23886443
p249
asg20
g21
sg22
VShirin Mansion, NB Marg, Opposite Grant Road Rly Station, Grant Road, Mumbai
p250
sba(i__main__
Place
p251
(dp252
g3
(lp253
VRestaurants
p254
asg6
g50
sg8
VHotel Shree Ganesh
p255
sg10
Vhttp://mumbai.burrp.com/listing/hotel-shree-ganesh_grant-road_mumbai_restaurants/1814444128
p256
sg12
VGrant Road
p257
sg14
(lp258
V26073592
p259
asg20
g50
sg22
V10, Pannalal Terrace, D.B. Marg, Lamington Road, Grant Road, Mumbai
p260
sba(i__main__
Place
p261
(dp262
g3
(lp263
VRestaurants
p264
asg6
g50
sg8
VSantosham Veg Restaurant 
p265
sg10
Vhttp://mumbai.burrp.com/listing/santosham-veg-restaurant-_grant-road_mumbai_restaurants/1724488237
p266
sg12
VGrant Road
p267
sg14
(lp268
V23882173 
p269
asg20
g50
sg22
VOpp Grant Rd Rly.Station , Grant Road, Mumbai
p270
sba(i__main__
Place
p271
(dp272
g3
(lp273
VRestaurants
p274
asg6
g50
sg8
VNew Grand Restaurant
p275
sg10
Vhttp://mumbai.burrp.com/listing/new-grand-restaurant_grant-road_mumbai_restaurants/1496852960
p276
sg12
VGrant Road
p277
sg14
(lp278
V23083357
p279
aV 23083366
p280
aV 9867351099
p281
asg20
g50
sg22
V422, Ibrahim Mansion, Grant Road, Mumbai
p282
sba(i__main__
Place
p283
(dp284
g3
(lp285
VRestaurants
p286
aV Hotels
p287
asg6
g50
sg8
VHotel Gulistan
p288
sg10
Vhttp://mumbai.burrp.com/listing/hotel-gulistan_grant-road_mumbai_restaurants-hotels/1979917712
p289
sg12
VGrant Road
p290
sg14
(lp291
V23081461
p292
aV 23081462
p293
aV 23081463
p294
aV 23081464
p295
asg20
g50
sg22
V196 Lamington Road, Grant Road, Mumbai
p296
sba(i__main__
Place
p297
(dp298
g3
(lp299
VRestaurants
p300
asg6
g50
sg8
VNagina Resturant & Bar
p301
sg10
Vhttp://mumbai.burrp.com/listing/nagina-resturant-bar_grant-road_mumbai_restaurants/1259919584
p302
sg12
VGrant Road
p303
sg14
(lp304
V23075788
p305
aV 23079537
p306
aV 23088571
p307
asg20
g50
sg22
VBuilding No 378/A, Karanjia Building, M S Ali Road , Grant Road, Mumbai
p308
sba(i__main__
Place
p309
(dp310
g3
(lp311
VRestaurants
p312
asg6
g50
sg8
VSpecial Hindmata Restaurant
p313
sg10
Vhttp://mumbai.burrp.com/listing/special-hindmata-restaurant_grant-road_mumbai_restaurants/1439921366
p314
sg12
VGrant Road
p315
sg14
(lp316
V23090496
p317
aV 65592888
p318
aV 9323908397
p319
asg20
g50
sg22
V204  Parvati Mension, Dr D B  Marg, Grant Road, Mumbai
p320
sba(i__main__
Place
p321
(dp322
g3
(lp323
VRestaurants
p324
asg6
g50
sg8
VLokmanya Hindu Hotel
p325
sg10
Vhttp://mumbai.burrp.com/listing/lokmanya-hindu-hotel_grant-road_mumbai_restaurants/1559922554
p326
sg12
VGrant Road
p327
sg14
(lp328
V23886782
p329
asg20
g50
sg22
VShop No 1, Royal Chamber, H G Road, Gamdevi, Near Nana Chowk, Grant Road, Mumbai
p330
sba(i__main__
Place
p331
(dp332
g3
(lp333
VRestaurants
p334
asg6
g50
sg8
VRailway Refreshment Room
p335
sg10
Vhttp://mumbai.burrp.com/listing/railway-refreshment-room_grant-road_mumbai_restaurants/1899925920
p336
sg12
VGrant Road
p337
sg14
(lp338
V23852035
p339
aV 23895855
p340
asg20
g50
sg22
VBlock No 15/17, Raiway Hotel Building , Raja Ram Mohan Roy Road, Grant Road, Mumbai
p341
sba(i__main__
Place
p342
(dp343
g3
(lp344
VRestaurants
p345
asg6
g50
sg8
VNew Shanti Bhuvan
p346
sg10
Vhttp://mumbai.burrp.com/listing/new-shanti-bhuvan_grant-road_mumbai_restaurants/1259928584
p347
sg12
VGrant Road
p348
sg14
(lp349
V23819303
p350
aV 23861763
p351
asg20
g50
sg22
VShop No 158, S V P Road, Grant Road, Mumbai
p352
sba(i__main__
Place
p353
(dp354
g3
(lp355
VRestaurants
p356
asg6
g50
sg8
VNew Benevolent India
p357
sg10
Vhttp://mumbai.burrp.com/listing/new-benevolent-india_grant-road_mumbai_restaurants/1299928980
p358
sg12
VGrant Road
p359
sg14
(lp360
V
p361
aV 9821399007
p362
aV 9867677860
p363
asg20
g50
sg22
VShop No 38, Orient Shopping Plaza, M S Ali Road, Near Jafferbhais Delhi Darbar , Grant Road, Mumbai
p364
sba(i__main__
Place
p365
(dp366
g3
(lp367
VRestaurants
p368
asg6
g50
sg8
VNagina Restaurant  And Bar
p369
sg10
Vhttp://mumbai.burrp.com/listing/nagina-restaurant-and-bar_grant-road_mumbai_restaurants/1319929178
p370
sg12
VGrant Road
p371
sg14
(lp372
V23075788
p373
aV 23079537
p374
aV 23088571
p375
asg20
g50
sg22
VGround Floor, Karanjiya Building, Grant Road, Mumbai
p376
sba(i__main__
Place
p377
(dp378
g3
(lp379
VRestaurants
p380
asg6
g50
sg8
VNew Grant Restaurant
p381
sg10
Vhttp://mumbai.burrp.com/listing/new-grant-restaurant_grant-road_mumbai_restaurants/1399929970
p382
sg12
VGrant Road
p383
sg14
(lp384
V23054416
p385
aV 23083357
p386
asg20
g50
sg22
V422, Ibrahim Mansion, Ibrahim Road, M Shaukat Ali Road, Grant Road, Mumbai
p387
sba(i__main__
Place
p388
(dp389
g3
(lp390
VRestaurants
p391
asg6
g50
sg8
VAahaar Restaurant
p392
sg10
Vhttp://mumbai.burrp.com/listing/aahaar-restaurant_grant-road_mumbai_restaurants/1619932148
p393
sg12
VGrant Road
p394
sg14
(lp395
V23808005
p396
aV 23889109
p397
asg20
g50
sg22
VSeva Sadan Society, Pandit Ramabai Road, Grant Road, Mumbai
p398
sba(i__main__
Place
p399
(dp400
g3
(lp401
VShops
p402
aV Restaurants
p403
aV Dessert Shops
p404
asg6
g50
sg8
VAgarwal Restaurant
p405
sg10
Vhttp://mumbai.burrp.com/listing/agarwal-restaurant_grant-road_mumbai_shops-restaurants-dessert-shops/1719933138
p406
sg12
VGrant Road
p407
sg14
(lp408
V23079871
p409
asg20
g50
sg22
VShop No 304, Javeri Building, Maulana Shoukat Ali Road, Grant Road, Mumbai
p410
sba(i__main__
Place
p411
(dp412
g3
(lp413
VRestaurants
p414
asg6
g50
sg8
VDe Shisha.Inn
p415
sg10
Vhttp://mumbai.burrp.com/listing/de-shishainn_grant-road_mumbai_restaurants/1919935118
p416
sg12
VGrant Road
p417
sg14
(lp418
V23822258
p419
aV 9821399007
p420
aV 9867677860
p421
asg20
g50
sg22
VShop No 38, Ground Floor, Orient Shopping Plaza, MS Ali Road, Near Delhi Darbar, Grant Road, Mumbai
p422
sba(i__main__
Place
p423
(dp424
g3
(lp425
VRestaurants
p426
asg6
g50
sg8
VShakti Lunch Home
p427
sg10
Vhttp://mumbai.burrp.com/listing/shakti-lunch-home_grant-road_mumbai_restaurants/1479957762
p428
sg12
VGrant Road
p429
sg14
(lp430
V23092473
p431
asg20
g50
sg22
VKamar Building, P B Marg, Grant Road, Mumbai
p432
sba(i__main__
Place
p433
(dp434
g3
(lp435
VBars & Pubs
p436
aV Restaurants
p437
asg6
g50
sg8
VShabnam Restaurant
p438
sg10
Vhttp://mumbai.burrp.com/listing/shabnam-restaurant_grant-road_mumbai_bars-pubs-restaurants/1579958752
p439
sg12
VGrant Road
p440
sg14
(lp441
V23081707
p442
asg20
g50
sg22
V190 Press Wala Bldg, Nr Minerva Cinema, Grant Road, Mumbai
p443
sba(i__main__
Place
p444
(dp445
g3
(lp446
VRestaurants
p447
asg6
g50
sg8
VShaan Restaurant
p448
sg10
Vhttp://mumbai.burrp.com/listing/shaan-restaurant_grant-road_mumbai_restaurants/1119963198
p449
sg12
VGrant Road
p450
sg14
(lp451
V23072033
p452
aV 23090304
p453
asg20
g50
sg22
VBuilding No 312, Maulana Shaukat Ali Road, Grant Road, Mumbai
p454
sba(i__main__
Place
p455
(dp456
g3
(lp457
VRestaurants
p458
asg6
g169
sg8
VCongress Restaurant
p459
sg10
Vhttp://mumbai.burrp.com/listing/congress-restaurant_grant-road_mumbai_restaurants/1479966762
p460
sg12
VGrant Road
p461
sg14
(lp462
V23875530
p463
asg20
g50
sg22
VBuilding No 416, Ground Floor, D N Manzil , A V P Road, Near Congress House, Grant Road, Mumbai
p464
sba(i__main__
Place
p465
(dp466
g3
(lp467
VRestaurants
p468
asg6
g50
sg8
VCafe Diamond Hotel
p469
sg10
Vhttp://mumbai.burrp.com/listing/cafe-diamond-hotel_grant-road_mumbai_restaurants/1499966960
p470
sg12
VGrant Road
p471
sg14
(lp472
V23000640
p473
asg20
g50
sg22
VMunicipal Building, Bapty Road Arab Gali, Grant Road, Mumbai
p474
sba(i__main__
Place
p475
(dp476
g3
(lp477
VBars & Pubs
p478
aV Restaurants
p479
asg6
g50
sg8
VHindu Vishranti Graha
p480
sg10
Vhttp://mumbai.burrp.com/listing/hindu-vishranti-graha_grant-road_mumbai_bars-pubs-restaurants/1779969732
p481
sg12
VGrant Road
p482
sg14
(lp483
V23864235
p484
asg20
g50
sg22
V12 Ishwardas Mansion, J S Road, Nanak Chowk, Grant Road, Mumbai
p485
sba(i__main__
Place
p486
(dp487
g3
(lp488
VDessert Shops
p489
aV Restaurants
p490
aV Cafes
p491
asg6
g50
sg8
VVeg Land Restaurant
p492
sg10
Vhttp://mumbai.burrp.com/listing/veg-land-restaurant_grant-road_mumbai_dessert-shops-restaurants-cafes/1179972792
p493
sg12
VGrant Road
p494
sg14
(lp495
V23090496
p496
aV 65592888
p497
asg20
g50
sg22
VShop No 13, C Wing, Parvati Mansion, Dr D B Marg, Grant Road, Mumbai
p498
sba(i__main__
Place
p499
(dp500
g3
(lp501
VRestaurants
p502
aV Bars & Pubs
p503
asg6
g50
sg8
VJunction Restaurant & Bar
p504
sg10
Vhttp://mumbai.burrp.com/listing/junction-restaurant-bar_grant-road_mumbai_restaurants-bars-pubs/1279973782
p505
sg12
VGrant Road
p506
sg14
(lp507
V23077683
p508
asg20
g50
sg22
V168 Tyre House, Lamington Cross Road, Grant Road, Mumbai
p509
sba(i__main__
Place
p510
(dp511
g3
(lp512
VRestaurants
p513
asg6
g50
sg8
VThackers Caterers & Restaurant
p514
sg10
Vhttp://mumbai.burrp.com/listing/thackers-caterers-restaurant_grant-road_mumbai_restaurants/1259982584
p515
sg12
VGrant Road
p516
sg14
(lp517
V23649303
p518
asg20
g50
sg22
VBrila Kreeda Kendra, Rest Chowpaty, Grant Road, Mumbai
p519
sba(i__main__
Place
p520
(dp521
g3
(lp522
VRestaurants
p523
asg6
g50
sg8
VBest Dairy Farm Restaurant
p524
sg10
Vhttp://mumbai.burrp.com/listing/best-dairy-farm-restaurant_hughes-road_mumbai_restaurants/11110044198
p525
sg12
VHughes Road
p526
sg14
(lp527
V23809468
p528
asg20
g50
sg22
VNavyug Mansion Building, Sleater Road, Hughes Road, Grant Road, Mumbai
p529
sba(i__main__
Place
p530
(dp531
g3
(lp532
VRestaurants
p533
asg6
g50
sg8
VUdipi Lunch Home
p534
sg10
Vhttp://mumbai.burrp.com/listing/udipi-lunch-home_hughes-road_mumbai_restaurants/13310073376
p535
sg12
VHughes Road
p536
sg14
(lp537
V23890952
p538
aV 9892732033
p539
asg20
g50
sg22
VChoksi Building, Ground Floor, Gamdevi Road, Hughes Road, Grant Road, Mumbai
p540
sba(i__main__
Place
p541
(dp542
g3
(lp543
VRestaurants
p544
asg6
g50
sg8
VHotel Ayodhya
p545
sg10
Vhttp://mumbai.burrp.com/listing/hotel-ayodhya_lamington-road_mumbai_restaurants/16111138148
p546
sg12
VLamington Road
p547
sg14
(lp548
V23809117
p549
aV 23809723
p550
asg20
g50
sg22
VBuilding No 409 , Dr D B Marg , Opposite YMCA  , Lamington Road, Grant Road, Mumbai
p551
sba(i__main__
Place
p552
(dp553
g3
(lp554
VRestaurants
p555
asg6
g50
sg8
VShree Ganesh Restaurant
p556
sg10
Vhttp://mumbai.burrp.com/listing/shree-ganesh-restaurant_lamington-road_mumbai_restaurants/19511141514
p557
sg12
VLamington Road
p558
sg14
(lp559
V23073592
p560
asg20
g50
sg22
VFlat No G/10 , Pannalal Terrace, D B Marg , Lamington Road, Grant Road, Mumbai
p561
sba(i__main__
Place
p562
(dp563
g3
(lp564
VRestaurants
p565
aV Hotels
p566
asg6
g50
sg8
VCrystal Hotel
p567
sg10
Vhttp://mumbai.burrp.com/listing/crystal-hotel_lamington-road_mumbai_restaurants-hotels/11311142396
p568
sg12
VLamington Road
p569
sg14
(lp570
V23080251
p571
aV 23080252
p572
aV 23080253
p573
aV 23080254
p574
asg20
g50
sg22
V9  Marazaban Parsi Colony, Gilder Road, Lamington Road, Grant Road, Mumbai
p575
sba(i__main__
Place
p576
(dp577
g3
(lp578
VRestaurants
p579
asg6
g50
sg8
VVaibhav Restaurant
p580
sg10
Vhttp://mumbai.burrp.com/listing/vaibhav-restaurant_lamington-road_mumbai_restaurants/12111143188
p581
sg12
VLamington Road
p582
sg14
(lp583
V23099382
p584
asg20
g50
sg22
VShop No 187, Near Railway Station , Lamington Road, Grant Road, Mumbai
p585
sba(i__main__
Place
p586
(dp587
g3
(lp588
VRestaurants
p589
asg6
g50
sg8
VKings Restaurant
p590
sg10
Vhttp://mumbai.burrp.com/listing/kings-restaurant_lamington-road_mumbai_restaurants/13311144376
p591
sg12
VLamington Road
p592
sg14
(lp593
V23841495
p594
aV 9969075186
p595
asg20
g50
sg22
V386 Ahmed Chambers, Opp Swastik Cinema, Lamington Road, Grant Road, Mumbai
p596
sba(i__main__
Place
p597
(dp598
g3
(lp599
VHotels
p600
aV Restaurants
p601
asg6
g50
sg8
VPark Shilton Hotel
p602
sg10
Vhttp://mumbai.burrp.com/listing/park-shilton-hotel_lamington-road_mumbai_hotels-restaurants/14111145168
p603
sg12
VLamington Road
p604
sg14
(lp605
V23003939
p606
aV 23004949
p607
aV 23020909
p608
asg20
g50
sg22
VNear Navjeevan Society, Lamington Road, Grant Road, Mumbai
p609
sba(i__main__
Place
p610
(dp611
g3
(lp612
VRestaurants
p613
asg6
g50
sg8
VJaffer Bhai's Delhi Darbar
p614
sg10
Vhttp://mumbai.burrp.com/listing/jaffer-bhais-delhi-darbar_grant-road_mumbai_restaurants/16118644148
p615
sg12
VGrant Road
p616
sg14
(lp617
V23875656
p618
aV 23875658
p619
aV 23875659
p620
asg20
g50
sg22
VRoom No 7 & 8, Dinath Building No 202/228, P B Marg, Grant Road, Mumbai
p621
sba.