(lp0
(i__main__
Place
p1
(dp2
S'category'
p3
(lp4
VRoad-side Stalls
p5
aV Restaurants
p6
asS'rating'
p7
V1
p8
sS'name'
p9
VBade Miya
p10
sS'url'
p11
Vhttp://mumbai.burrp.com/listing/bade-miya_horniman-circle_mumbai_road-side-stalls-restaurants/17124324138
p12
sS'region'
p13
VHorniman Circle
p14
sS'phone'
p15
(lp16
V22655657
p17
aV 22655658
p18
aV 22655659
p19
asS'cost'
p20
V2
p21
sS'addr'
p22
V7/8/9, Shop No 6, Botawala Building, Horniman Circle, Fort, Mumbai
p23
sba.