(lp0
(i__main__
Place
p1
(dp2
S'category'
p3
(lp4
VRestaurants
p5
asS'rating'
p6
V0
p7
sS'name'
p8
VDipesh Restaurant And  Bar
p9
sS'url'
p10
Vhttp://mumbai.burrp.com/listing/dipesh-restaurant-and-bar_jnpt_navi-mumbai_restaurants/13913718970
p11
sS'region'
p12
VJNPT
p13
sS'phone'
p14
(lp15
V64226632
p16
aV 9223345666
p17
asS'cost'
p18
g7
sS'addr'
p19
VHouse 389, Sonari Village, JNPT, Navi Mumbai
p20
sba.