(lp0
(i__main__
Place
p1
(dp2
S'category'
p3
(lp4
VRestaurants
p5
asS'rating'
p6
V0
p7
sS'name'
p8
VNational Bar & Restaurant
p9
sS'url'
p10
Vhttp://mumbai.burrp.com/listing/national-bar-restaurant_khira-nagar_mumbai_restaurants/11111016198
p11
sS'region'
p12
VKhira Nagar
p13
sS'phone'
p14
(lp15
V26110926
p16
aV 26150547
p17
asS'cost'
p18
g7
sS'addr'
p19
VShop No 123, Rameshwar Society, S V Road, Khira Nagar, Santacruz West, Mumbai
p20
sba.