(lp0
(i__main__
Place
p1
(dp2
S'category'
p3
(lp4
VRestaurants
p5
asS'rating'
p6
V0
p7
sS'name'
p8
VVasant Refreshments
p9
sS'url'
p10
Vhttp://mumbai.burrp.com/listing/vasant-refreshments_ballard-estate_mumbai_restaurants/1457689564
p11
sS'region'
p12
VBallard Estate
p13
sS'phone'
p14
(lp15
V22617680
p16
aV 22618303
p17
aV 9820001000
p18
asS'cost'
p19
V2
p20
sS'addr'
p21
VDock View Building, W H Marg, Ballard Estate, Fort, Mumbai
p22
sba.