(lp0
(i__main__
Place
p1
(dp2
S'category'
p3
(lp4
VRestaurants
p5
asS'rating'
p6
V0
p7
sS'name'
p8
VMilan Restaurant
p9
sS'url'
p10
Vhttp://mumbai.burrp.com/listing/milan-restaurant_link-road-goregoan-west_mumbai_restaurants/13323312376
p11
sS'region'
p12
VLink Road-Goregoan West
p13
sS'phone'
p14
(lp15
V28778767
p16
aV 9588798006
p17
asS'cost'
p18
V2
p19
sS'addr'
p20
VAzad Nagar, New Link Road, Link Road-Goregoan West, Goregaon West, Mumbai
p21
sba.