(lp0
(i__main__
Place
p1
(dp2
S'category'
p3
(lp4
VRestaurants
p5
aV Bars & Pubs
p6
asS'rating'
p7
V0
p8
sS'name'
p9
VSunken Bar
p10
sS'url'
p11
Vhttp://mumbai.burrp.com/listing/sunken-bar_madh_mumbai_restaurants-bars-pubs/14311271366
p12
sS'region'
p13
VMadh
p14
sS'phone'
p15
(lp16
V28813500
p17
asS'cost'
p18
g8
sS'addr'
p19
VRetreat Hotel, Madh Marve Rd, Madh, Malad West, Mumbai
p20
sba.