(lp0
(i__main__
Place
p1
(dp2
S'category'
p3
(lp4
VRestaurants
p5
asS'rating'
p6
V4
p7
sS'name'
p8
VKakori House
p9
sS'url'
p10
Vhttp://mumbai.burrp.com/listing/kakori-house_mahim_mumbai_restaurants/1475493762
p11
sS'region'
p12
VMahim
p13
sS'phone'
p14
(lp15
V65229211
p16
aV 65129211
p17
asS'cost'
p18
V2
p19
sS'addr'
p20
VShiv Sagar Society, Opp. Paradise Square Cinema, L.J. Road, Mahim, Mumbai
p21
sba(i__main__
Place
p22
(dp23
g3
(lp24
VRestaurants
p25
asg6
V5
p26
sg8
VKoliwada
p27
sg10
Vhttp://mumbai.burrp.com/listing/koliwada_mahim_mumbai_restaurants/160437049
p28
sg12
VMahim
p29
sg14
(lp30
V9930204088
p31
asg18
g19
sg20
VShop No. 5, Pushpa Kunj Building, Mori Road, Mahim, Mumbai
p32
sba(i__main__
Place
p33
(dp34
g3
(lp35
VRestaurants
p36
aV Bars & Pubs
p37
asg6
V3
p38
sg8
VGoa Portuguesa
p39
sg10
Vhttp://mumbai.burrp.com/listing/goa-portuguesa_mahim_mumbai_restaurants-bars-pubs/194116415
p40
sg12
VMahim
p41
sg14
(lp42
V24440202
p43
aV 24440707
p44
aV 24468262
p45
aV 24468515
p46
asg18
g38
sg20
VT.H. Kataria Road, Mahim, Mumbai
p47
sba(i__main__
Place
p48
(dp49
g3
(lp50
VRestaurants
p51
asg6
g38
sg8
VSmokin' Joe's
p52
sg10
Vhttp://mumbai.burrp.com/listing/smokin-joes_mahim_mumbai_restaurants/18616623
p53
sg12
VMahim
p54
sg14
(lp55
V24443366
p56
aV 39510443
p57
asg18
V0
p58
sg20
V1/2 Bhagirati Sadan, 235/237 Veer Savarkar Marg, Cadell Road, Mahim, Mumbai
p59
sba(i__main__
Place
p60
(dp61
g3
(lp62
VRestaurants
p63
asg6
g7
sg8
VMadina Hotel
p64
sg10
Vhttp://mumbai.burrp.com/listing/madina-hotel_mahim_mumbai_restaurants/179375930
p65
sg12
VMahim
p66
sg14
(lp67
V24456540
p68
asg18
V1
p69
sg20
VLJ Road, Nr St Michael Church, Mahim, Mumbai
p70
sba(i__main__
Place
p71
(dp72
g3
(lp73
VRestaurants
p74
asg6
g38
sg8
VCulture Curry
p75
sg10
Vhttp://mumbai.burrp.com/listing/culture-curry_mahim_mumbai_restaurants/16668643
p76
sg12
VMahim
p77
sg14
(lp78
V24440202
p79
aV 24440707
p80
aV 24468262
p81
asg18
g58
sg20
VKataria Road, Opposite Mahim Post Office, Mahim, Mumbai
p82
sba(i__main__
Place
p83
(dp84
g3
(lp85
VRestaurants
p86
asg6
g26
sg8
VParamount
p87
sg10
Vhttp://mumbai.burrp.com/listing/paramount_mahim_mumbai_restaurants/122136287
p88
sg12
VMahim
p89
sg14
(lp90
V24454104
p91
asg18
g19
sg20
Vlsad Ali Building, L J Road, Mahim West, Mahim, Mumbai
p92
sba(i__main__
Place
p93
(dp94
g3
(lp95
VOutdoor Caterers
p96
aV Restaurants
p97
asg6
g7
sg8
VAswad Hotel
p98
sg10
Vhttp://mumbai.burrp.com/listing/aswad-hotel_mahim_mumbai_outdoor-caterers-restaurants/18511356524
p99
sg12
VMahim
p100
sg14
(lp101
V24463214
p102
asg18
g69
sg20
VShop No 20, Anand Building, Sheetla Devi Temple Road, Mahim, Mumbai
p103
sba(i__main__
Place
p104
(dp105
g3
(lp106
VRestaurants
p107
asg6
g58
sg8
VAnand Bhavan Restaurant And Bar
p108
sg10
Vhttp://mumbai.burrp.com/listing/anand-bhavan-restaurant-and-bar_mahim_mumbai_restaurants/13711315772
p109
sg12
VMahim
p110
sg14
(lp111
V24443757
p112
aV 24464264
p113
asg18
g58
sg20
VShop No 168, Kawle Wadi Building, L J Road, Mahim, Mumbai
p114
sba(i__main__
Place
p115
(dp116
g3
(lp117
VRestaurants
p118
asg6
g58
sg8
VSimply Delecious
p119
sg10
Vhttp://mumbai.burrp.com/listing/simply-delecious_mahim_mumbai_restaurants/12324607386
p120
sg12
VMahim
p121
sg14
(lp122
V24452121
p123
aV 24452323
p124
asg18
g19
sg20
VSamarth Estate Limited, Prakash Kotnis Marg, Near Hinduja Hospital, Mahim, Mumbai
p125
sba(i__main__
Place
p126
(dp127
g3
(lp128
VRestaurants
p129
asg6
g58
sg8
VIcy Spicy
p130
sg10
Vhttp://mumbai.burrp.com/listing/icy-spicy_mahim_mumbai_restaurants/1491335960
p131
sg12
VMahim
p132
sg14
(lp133
V24466612
p134
aV 24466103
p135
aV 9820791081
p136
aV 9867266612
p137
asg18
g19
sg20
VSindhi Niwas, Sitladevi Temple Road, Mahim, Mumbai
p138
sba(i__main__
Place
p139
(dp140
g3
(lp141
VRestaurants
p142
aV Bars & Pubs
p143
asg6
g58
sg8
VMing Chinese Restaurant
p144
sg10
Vhttp://mumbai.burrp.com/listing/ming-chinese-restaurant_mahim_mumbai_restaurants-bars-pubs/17311355336
p145
sg12
VMahim
p146
sg14
(lp147
V24451844
p148
asg18
g19
sg20
VAlpaiwala Building, M M C Road, Mahim, Mumbai
p149
sba(i__main__
Place
p150
(dp151
g3
(lp152
VRestaurants
p153
asg6
g58
sg8
VNoorani Restaurant
p154
sg10
Vhttp://mumbai.burrp.com/listing/noorani-restaurant_mahim_mumbai_restaurants/19711312712
p155
sg12
VMahim
p156
sg14
(lp157
V24454873
p158
asg18
g58
sg20
VGround Floor, Ganesh Bhavan Building, M N C Road, Mahim, Mumbai
p159
sba(i__main__
Place
p160
(dp161
g3
(lp162
VDessert Shops
p163
aV Restaurants
p164
aV Cafes
p165
asg6
g58
sg8
VSudha Refreshments
p166
sg10
Vhttp://mumbai.burrp.com/listing/sudha-refreshments_mahim_mumbai_dessert-shops-restaurants-cafes/14711352762
p167
sg12
VMahim
p168
sg14
(lp169
V24455647
p170
asg18
g58
sg20
VCrstal Colony, Sonawala Agiyari Marg, Mahim, Mumbai
p171
sba(i__main__
Place
p172
(dp173
g3
(lp174
VRestaurants
p175
asg6
g58
sg8
VSushegad Gomantak
p176
sg10
Vhttp://mumbai.burrp.com/listing/sushegad-gomantak_mahim_mumbai_restaurants/18561524
p177
sg12
VMahim
p178
sg14
(lp179
V24445555
p180
asg18
g69
sg20
VShop No. A 11, Shiv Sagar Society, L J Road, Mahim, Mumbai
p181
sba(i__main__
Place
p182
(dp183
g3
(lp184
VRestaurants
p185
asg6
g58
sg8
VAram
p186
sg10
Vhttp://mumbai.burrp.com/listing/aram_mahim_mumbai_restaurants/149102960
p187
sg12
VMahim
p188
sg14
(lp189
V24441358
p190
asg18
g58
sg20
VMahim Bus Depot, Opposite St Michael's Church, Mori Road, Mahim, Mumbai
p191
sba(i__main__
Place
p192
(dp193
g3
(lp194
VRestaurants
p195
asg6
g58
sg8
VMahavir Hindu Restaurant
p196
sg10
Vhttp://mumbai.burrp.com/listing/mahavir-hindu-restaurant_mahim_mumbai_restaurants/178168831
p197
sg12
VMahim
p198
sg14
(lp199
V24369182
p200
asg18
g58
sg20
VA.S. Gaya Marg, Mahim, Mumbai
p201
sba(i__main__
Place
p202
(dp203
g3
(lp204
VRestaurants
p205
aV Outdoor Caterers
p206
aV Bars & Pubs
p207
asg6
g58
sg8
VNeelam Restaurant and Bar
p208
sg10
Vhttp://mumbai.burrp.com/listing/neelam-restaurant-and-bar_mahim_mumbai_restaurants-outdoor-caterers-bars-pubs/1501327059
p209
sg12
VMahim
p210
sg14
(lp211
V24307764
p212
aV 24212807
p213
asg18
g58
sg20
V171, LJ Road, Mahim, Mumbai
p214
sba(i__main__
Place
p215
(dp216
g3
(lp217
VRestaurants
p218
asg6
g58
sg8
VSheetal Veg & Non-Veg 
p219
sg10
Vhttp://mumbai.burrp.com/listing/sheetal-veg-non-veg-_mahim_mumbai_restaurants/1704479039
p220
sg12
VMahim
p221
sg14
(lp222
V24386211
p223
aV 24326839 
p224
asg18
g58
sg20
VShree Krishna Niwas, Shop No.1, T. H. Kataria Road, Mahim, Mumbai
p225
sba(i__main__
Place
p226
(dp227
g3
(lp228
VRestaurants
p229
asg6
g58
sg8
VSagar Restaurant & Bar
p230
sg10
Vhttp://mumbai.burrp.com/listing/sagar-restaurant-bar_mahim_mumbai_restaurants/1424530267
p231
sg12
VMahim
p232
sg14
(lp233
V24457315
p234
asg18
g58
sg20
VMori road, Mahim, Mumbai
p235
sba(i__main__
Place
p236
(dp237
g3
(lp238
VRestaurants
p239
asg6
g58
sg8
VMobar 
p240
sg10
Vhttp://mumbai.burrp.com/listing/mobar-_mahim_mumbai_restaurants/1317103178
p241
sg12
VMahim
p242
sg14
(lp243
V65297339
p244
aV 65145129
p245
asg18
g19
sg20
V201/18, Anand Bhuvan, T.H.Kataria Marg, Mahim, Mumbai
p246
sba(i__main__
Place
p247
(dp248
g3
(lp249
VRestaurants
p250
asg6
g58
sg8
VGazi Restaurant
p251
sg10
Vhttp://mumbai.burrp.com/listing/gazi-restaurant_mahim_mumbai_restaurants/17911301930
p252
sg12
VMahim
p253
sg14
(lp254
V24072265
p255
aV 24092448
p256
aV 9930352677
p257
asg18
g58
sg20
VDharavi Main Road, Mahim, Mumbai
p258
sba(i__main__
Place
p259
(dp260
g3
(lp261
VRestaurants
p262
asg6
g58
sg8
VRam Punjab Restaurant & Bar
p263
sg10
Vhttp://mumbai.burrp.com/listing/ram-punjab-restaurant-bar_mahim_mumbai_restaurants/16311309346
p264
sg12
VMahim
p265
sg14
(lp266
V24451504
p267
aV 24452363
p268
asg18
g58
sg20
V178, L J Road, Opposite Gopi Tank Market, Mahim, Mumbai
p269
sba(i__main__
Place
p270
(dp271
g3
(lp272
VRestaurants
p273
aV Bars & Pubs
p274
asg6
g58
sg8
VNew Gentleman Restaurant
p275
sg10
Vhttp://mumbai.burrp.com/listing/new-gentleman-restaurant_mahim_mumbai_restaurants-bars-pubs/19911312910
p276
sg12
VMahim
p277
sg14
(lp278
V24468251
p279
asg18
g58
sg20
VAnchorage Building, L J Road, Opp St Micheal Church, Mahim, Mumbai
p280
sba(i__main__
Place
p281
(dp282
g3
(lp283
VRestaurants
p284
asg6
g58
sg8
VNEW NEELAM
p285
sg10
Vhttp://mumbai.burrp.com/listing/new-neelam_mahim_mumbai_restaurants/12111314188
p286
sg12
VMahim
p287
sg14
(lp288
V24307764
p289
asg18
g58
sg20
VL J ROAD MAHIM, Mahim, Mumbai
p290
sba(i__main__
Place
p291
(dp292
g3
(lp293
VRestaurants
p294
asg6
g58
sg8
VDurga Lunch Home
p295
sg10
Vhttp://mumbai.burrp.com/listing/durga-lunch-home_mahim_mumbai_restaurants/17311337336
p296
sg12
VMahim
p297
sg14
(lp298
V24468455
p299
asg18
g58
sg20
V72 Glasswala Building, L J Road, Mahim, Mumbai
p300
sba(i__main__
Place
p301
(dp302
g3
(lp303
VRestaurants
p304
aV Bars & Pubs
p305
asg6
g58
sg8
VAangan Bar & Restaurant
p306
sg10
Vhttp://mumbai.burrp.com/listing/aangan-bar-restaurant_mahim_mumbai_restaurants-bars-pubs/11111340198
p307
sg12
VMahim
p308
sg14
(lp309
V24457189
p310
aV 69518004
p311
aV 9869153694
p312
asg18
g58
sg20
VKadri Mansion, L G Road, Mahim, Mumbai
p313
sba(i__main__
Place
p314
(dp315
g3
(lp316
VRestaurants
p317
aV Juice Parlours
p318
asg6
g58
sg8
VStep In Restaurant And  Bar
p319
sg10
Vhttp://mumbai.burrp.com/listing/step-in-restaurant-and-bar_mahim_mumbai_restaurants-juice-parlours/17111346138
p320
sg12
VMahim
p321
sg14
(lp322
V24452516
p323
asg18
g58
sg20
VShop No 1/2/3, Green Lawns, Kapad Bazar Lane, Mahim, Mumbai
p324
sba(i__main__
Place
p325
(dp326
g3
(lp327
VRestaurants
p328
asg6
g58
sg8
VS P Anand Bhonan
p329
sg10
Vhttp://mumbai.burrp.com/listing/s-p-anand-bhonan_mahim_mumbai_restaurants/19111348118
p330
sg12
VMahim
p331
sg14
(lp332
V24443757
p333
aV 24464264
p334
asg18
g58
sg20
V168, L J Road, Mahim, Mumbai
p335
sba(i__main__
Place
p336
(dp337
g3
(lp338
VRestaurants
p339
aV Bars & Pubs
p340
asg6
g58
sg8
VShri Krishna
p341
sg10
Vhttp://mumbai.burrp.com/listing/shri-krishna_mahim_mumbai_restaurants-bars-pubs/14911352960
p342
sg12
VMahim
p343
sg14
(lp344
V24376275
p345
aV 24389329
p346
asg18
g58
sg20
V5/B, Opp Atation, Mahim, Mumbai
p347
sba(i__main__
Place
p348
(dp349
g3
(lp350
VDessert Shops
p351
aV Restaurants
p352
aV Cafes
p353
asg6
g58
sg8
VMonginis
p354
sg10
Vhttp://mumbai.burrp.com/listing/monginis_mahim_mumbai_dessert-shops-restaurants-cafes/17911355930
p355
sg12
VMahim
p356
sg14
(lp357
V24444629
p358
aV 65876132
p359
asg18
g58
sg20
V Shop No 4, Shree Krupa Foods, Amirani Mansion, M M C Road, Mahim, Mumbai
p360
sba(i__main__
Place
p361
(dp362
g3
(lp363
VRestaurants
p364
aV Bars & Pubs
p365
asg6
g58
sg8
VCapri Bar
p366
sg10
Vhttp://mumbai.burrp.com/listing/capri-bar_mahim_mumbai_restaurants-bars-pubs/11511358594
p367
sg12
VMahim
p368
sg14
(lp369
V24457145
p370
aV 24467519
p371
asg18
g58
sg20
V8 & 9, Mangresh Co-Op Society, L J Road, Near Canossa High School, Mahim, Mumbai
p372
sba(i__main__
Place
p373
(dp374
g3
(lp375
VRestaurants
p376
asg6
g58
sg8
VCafe Mearaj
p377
sg10
Vhttp://mumbai.burrp.com/listing/cafe-mearaj_mahim_mumbai_restaurants/12511359584
p378
sg12
VMahim
p379
sg14
(lp380
V24440440
p381
aV 9819310797
p382
asg18
g58
sg20
VShop No 64, Asha Manzil  , L J Road, Mahim, Mumbai
p383
sba(i__main__
Place
p384
(dp385
g3
(lp386
VRestaurants
p387
asg6
g58
sg8
VGee Lee Chinese Restaurant
p388
sg10
Vhttp://mumbai.burrp.com/listing/gee-lee-chinese-restaurant_mahim_mumbai_restaurants/14711361762
p389
sg12
VMahim
p390
sg14
(lp391
V24444670
p392
aV 24448667
p393
aV 9819706612
p394
asg18
g19
sg20
VWing No C, Shop No 15, Ganesh Bhuvan, Mahim, Mumbai
p395
sba(i__main__
Place
p396
(dp397
g3
(lp398
VRestaurants
p399
asg6
g58
sg8
VGarib Nawaz Hotel
p400
sg10
Vhttp://mumbai.burrp.com/listing/garib-nawaz-hotel_mahim_mumbai_restaurants/15911362950
p401
sg12
VMahim
p402
sg14
(lp403
V24461583
p404
asg18
g58
sg20
VShop No 5/6, Ground Floor, Pathan Manzil Building No 68, Dargah Street, Cadell Road, Mahim, Mumbai
p405
sba(i__main__
Place
p406
(dp407
g3
(lp408
VRestaurants
p409
asg6
g58
sg8
VGreen Arch Exclusive Restaurant & Bar
p410
sg10
Vhttp://mumbai.burrp.com/listing/green-arch-exclusive-restaurant-bar_mahim_mumbai_restaurants/16111363148
p411
sg12
VMahim
p412
sg14
(lp413
V24312644
p414
aV 9820157971
p415
asg18
g58
sg20
VBuilding No 47, Shristi Building, Sitladevi Temple Road, Near Victoria School , Mahim, Mumbai
p416
sba(i__main__
Place
p417
(dp418
g3
(lp419
VDessert Shops
p420
aV Restaurants
p421
aV Cafes
p422
asg6
g58
sg8
VV JAI Bakery
p423
sg10
Vhttp://mumbai.burrp.com/listing/v-jai-bakery_mahim_mumbai_dessert-shops-restaurants-cafes/18311365326
p424
sg12
VMahim
p425
sg14
(lp426
V24464224
p427
asg18
g58
sg20
VShop No  9/10, Senapati Bapat Marg, Mahim West, Mahim, Mumbai
p428
sba(i__main__
Place
p429
(dp430
g3
(lp431
VRestaurants
p432
asg6
g58
sg8
VJhunka Bhakar Kendra
p433
sg10
Vhttp://mumbai.burrp.com/listing/jhunka-bhakar-kendra_mahim_mumbai_restaurants/19711366712
p434
sg12
VMahim
p435
sg14
(lp436
V22941344
p437
asg18
g58
sg20
VGround Floor, Mahim Maternity Home, Kataria Marg, Opposite Diva Maharashtracha, Near City Light, Mahim, Mumbai
p438
sba(i__main__
Place
p439
(dp440
g3
(lp441
VRestaurants
p442
asg6
g58
sg8
VMahendra Dua
p443
sg10
Vhttp://mumbai.burrp.com/listing/mahendra-dua_mori-road_mumbai_restaurants/18912085920
p444
sg12
VMori Road
p445
sg14
(lp446
V
p447
aV 9820599519
p448
asg18
g58
sg20
VShop No 16, Building No 18, Navjeevan Colony, Near Sunder Cafe, Mori Road, Mahim, Mumbai
p449
sba(i__main__
Place
p450
(dp451
g3
(lp452
VRestaurants
p453
asg6
g58
sg8
VFhen Chinese Corner
p454
sg10
Vhttp://mumbai.burrp.com/listing/fhen-chinese-corner_mahim_mumbai_restaurants/16518446544
p455
sg12
VMahim
p456
sg14
(lp457
V64466969
p458
aV 24473646
p459
aV 24474293
p460
aV 9820585116
p461
asg18
g19
sg20
V11, Peter Mansion, L.J. Road, Mahim, Mumbai
p462
sba(i__main__
Place
p463
(dp464
g3
(lp465
VRestaurants
p466
asg6
g58
sg8
VRite On Coal
p467
sg10
Vhttp://mumbai.burrp.com/listing/rite-on-coal_mahim_mumbai_restaurants/12122447188
p468
sg12
VMahim
p469
sg14
(lp470
V24455697
p471
aV 24475403
p472
aV 24475404
p473
asg18
g19
sg20
VShop No. 19, 201, Anand Bhuvan, T.H. Kataria Mark, Mahim, Mumbai
p474
sba(i__main__
Place
p475
(dp476
g3
(lp477
VRestaurants
p478
asg6
g58
sg8
VSheetal Restaurant
p479
sg10
Vhttp://mumbai.burrp.com/listing/sheetal-restaurant_mahim_mumbai_restaurants/13724365772
p480
sg12
VMahim
p481
sg14
(lp482
V24386211
p483
asg18
g58
sg20
VShop No 1, Shree Krishna Niwas, T H Kataria Road, Mahim, Mumbai
p484
sba.