(lp0
(i__main__
Place
p1
(dp2
S'category'
p3
(lp4
VRestaurants
p5
asS'rating'
p6
V0
p7
sS'name'
p8
VParty
p9
sS'url'
p10
Vhttp://mumbai.burrp.com/listing/party_mahim-e_mumbai_restaurants/1981358811
p11
sS'region'
p12
VMahim (E)
p13
sS'phone'
p14
(lp15
V24221821
p16
asS'cost'
p17
g7
sS'addr'
p18
VSai Niwas,  L J Road, Mahim (E), Mumbai
p19
sba.