(lp0
(i__main__
Place
p1
(dp2
S'category'
p3
(lp4
VRestaurants
p5
asS'rating'
p6
V0
p7
sS'name'
p8
VPiccadily Restaurant & Bar
p9
sS'url'
p10
Vhttp://mumbai.burrp.com/listing/piccadily-restaurant-bar_majiwada_thane_restaurants/16914333940
p11
sS'region'
p12
VMajiwada
p13
sS'phone'
p14
(lp15
V25341423
p16
asS'cost'
p17
g7
sS'addr'
p18
V55-A Brindavan Soc, Majiwada, Thane West, Thane
p19
sba.