(lp0
(i__main__
Place
p1
(dp2
S'category'
p3
(lp4
VRestaurants
p5
asS'rating'
p6
V0
p7
sS'name'
p8
VShanghai Cin Chinese & Fast Food
p9
sS'url'
p10
Vhttp://mumbai.burrp.com/listing/shanghai-cin-chinese-fast-food_mamledar-wadi_mumbai_restaurants/14911802960
p11
sS'region'
p12
VMamledar Wadi
p13
sS'phone'
p14
(lp15
V28440942
p16
aV 28827906
p17
asS'cost'
p18
g7
sS'addr'
p19
VAjugiya Compound, Mamletdarwadi Road, Mamledar Wadi, Malad West, Mumbai
p20
sba.