(lp0
(i__main__
Place
p1
(dp2
S'category'
p3
(lp4
VRestaurants
p5
asS'rating'
p6
V3
p7
sS'name'
p8
VWazwaan Cook's Workshop
p9
sS'url'
p10
Vhttp://mumbai.burrp.com/listing/wazwaan-cooks-workshop_marol_mumbai_restaurants/158247851
p11
sS'region'
p12
VMarol
p13
sS'phone'
p14
(lp15
V66770017
p16
aV 66941144
p17
aV 65008145
p18
asS'cost'
p19
V0
p20
sS'addr'
p21
VMilitary Road, JP Nagar, Marol, Andheri East, Mumbai
p22
sba(i__main__
Place
p23
(dp24
g3
(lp25
VRestaurants
p26
aV Bars & Pubs
p27
asg6
g7
sg8
VSaffron Spice
p28
sg10
Vhttp://mumbai.burrp.com/listing/saffron-spice_marol_mumbai_restaurants-bars-pubs/156454653
p29
sg12
VMarol
p30
sg14
(lp31
V66990088
p32
aV 65172323
p33
aV 65173131
p34
aV 65173232
p35
asg19
V2
p36
sg21
VPlot No. 34, Central Road, Marol Inland Area, M.I.D.C., Andheri (E), Marol, Andheri East, Mumbai
p37
sba(i__main__
Place
p38
(dp39
g3
(lp40
VRestaurants
p41
asg6
g7
sg8
VUttam Da Dhaba
p42
sg10
Vhttp://mumbai.burrp.com/listing/uttam-da-dhaba_marol_mumbai_restaurants/123361386
p43
sg12
VMarol
p44
sg14
(lp45
V29207175
p46
asg19
g36
sg21
VMilitary Road, Marol Maroshi Road, Andheri (E), Marol, Andheri East, Mumbai
p47
sba(i__main__
Place
p48
(dp49
g3
(lp50
VRestaurants
p51
asg6
g7
sg8
VOm Uncle's Chinese Corner
p52
sg10
Vhttp://mumbai.burrp.com/listing/om-uncles-chinese-corner_marol_mumbai_restaurants/1142502495
p53
sg12
VMarol
p54
sg14
(lp55
V9820399159
p56
asg19
V1
p57
sg21
VVijay Nagar, Marol Maroshi Road, Marol, Andheri East, Mumbai
p58
sba(i__main__
Place
p59
(dp60
g3
(lp61
VRestaurants
p62
asg6
g7
sg8
VSmokin Lee's
p63
sg10
Vhttp://mumbai.burrp.com/listing/smokin-lees_marol_mumbai_restaurants/152742257
p64
sg12
VMarol
p65
sg14
(lp66
V32675252
p67
aV 32675253
p68
aV 9702299559
p69
asg19
g36
sg21
VShop No.3, Sagbaug, Andheri-Kurla Road, Marol, Andheri East, Mumbai
p70
sba(i__main__
Place
p71
(dp72
g3
(lp73
VRestaurants
p74
asg6
g7
sg8
VCafe Marol
p75
sg10
Vhttp://mumbai.burrp.com/listing/cafe-marol_marol_mumbai_restaurants/110369099
p76
sg12
VMarol
p77
sg14
(lp78
V29201384
p79
aV 29208184
p80
aV 9833138980
p81
asg19
g57
sg21
V1, 2, 3, Everjoy Apartments, Marol Maroshi Rd., Marol, Andheri East, Mumbai
p82
sba(i__main__
Place
p83
(dp84
g3
(lp85
VRestaurants
p86
asg6
g7
sg8
VBlossoms Fine Dine
p87
sg10
Vhttp://mumbai.burrp.com/listing/blossoms-fine-dine_marol_mumbai_restaurants/122928287
p88
sg12
VMarol
p89
sg14
(lp90
V22948791
p91
aV 22948792
p92
aV 9930977884
p93
asg19
g36
sg21
VMarol, Andheri East, Mumbai
p94
sba(i__main__
Place
p95
(dp96
g3
(lp97
VRestaurants
p98
asg6
V5
p99
sg8
VHariprasad Restaurant
p100
sg10
Vhttp://mumbai.burrp.com/listing/hariprasad-restaurant_marol_mumbai_restaurants/17311868336
p101
sg12
VMarol
p102
sg14
(lp103
V29209555
p104
aV 29202112
p105
asg19
g36
sg21
VMilitary Road, Marol Maroshi Road, Marol, Andheri East, Mumbai
p106
sba(i__main__
Place
p107
(dp108
g3
(lp109
VRestaurants
p110
asg6
V4
p111
sg8
VMore's
p112
sg10
Vhttp://mumbai.burrp.com/listing/mores_marol_mumbai_restaurants/114369495
p113
sg12
VMarol
p114
sg14
(lp115
V28510048
p116
aV 28510428
p117
asg19
g57
sg21
VShop No 4, 5, 6, Vinayak Society, Marol Military Rd, Andheri (E), Marol, Andheri East, Mumbai
p118
sba(i__main__
Place
p119
(dp120
g3
(lp121
VRestaurants
p122
asg6
g111
sg8
VJyoti Fast Food
p123
sg10
Vhttp://mumbai.burrp.com/listing/jyoti-fast-food_marol_mumbai_restaurants/1431200366
p124
sg12
VMarol
p125
sg14
(lp126
V28353445
p127
asg19
g36
sg21
VGreen Land Apartment, Gala No. 4, Building No. 2, J.B.Nagar, Andheri (E), Marol, Andheri East, Mumbai
p128
sba(i__main__
Place
p129
(dp130
g3
(lp131
VRestaurants
p132
aV Bars & Pubs
p133
asg6
g36
sg8
VRegency
p134
sg10
Vhttp://mumbai.burrp.com/listing/regency_marol_mumbai_restaurants-bars-pubs/1751365534
p135
sg12
VMarol
p136
sg14
(lp137
V42359999
p138
asg19
g20
sg21
VHotel Silver Inn, Near SBI Bank, Marol Maroshi Road, Marol, Andheri East, Mumbai
p139
sba(i__main__
Place
p140
(dp141
g3
(lp142
VRestaurants
p143
asg6
g20
sg8
VExcellency Restaurant 
p144
sg10
Vhttp://mumbai.burrp.com/listing/excellency-restaurant-_marol_mumbai_restaurants/18733946722
p145
sg12
VMarol
p146
sg14
(lp147
V32161888 
p148
aV 32171888 
p149
aV 29250428 
p150
asg19
g36
sg21
VMarol Military Road  , Marol, Andheri East, Mumbai
p151
sba(i__main__
Place
p152
(dp153
g3
(lp154
VRestaurants
p155
asg6
g20
sg8
VTemptation
p156
sg10
Vhttp://mumbai.burrp.com/listing/temptation_marol_mumbai_restaurants/111369198
p157
sg12
VMarol
p158
sg14
(lp159
V29250203
p160
asg19
g36
sg21
VMarol Maroshi Road, Marol, Andheri East, Mumbai
p161
sba(i__main__
Place
p162
(dp163
g3
(lp164
VRestaurants
p165
asg6
g20
sg8
VKateeleshwari
p166
sg10
Vhttp://mumbai.burrp.com/listing/kateeleshwari_marol_mumbai_restaurants/113369396
p167
sg12
VMarol
p168
sg14
(lp169
V29201476
p170
aV 29205286
p171
asg19
g57
sg21
VCrescent Apt Shop No 3, Opp Deepti Wines, Marol Military Rd., Andheri (E), Marol, Andheri East, Mumbai
p172
sba(i__main__
Place
p173
(dp174
g3
(lp175
VRestaurants
p176
asg6
g20
sg8
VNew Sansar Hotel
p177
sg10
Vhttp://mumbai.burrp.com/listing/new-sansar-hotel_marol_mumbai_restaurants/191926118
p178
sg12
VMarol
p179
sg14
(lp180
V28501082
p181
asg19
g57
sg21
VMarol Naka, Andheri Kurla Road, Andheri (E), Marol, Andheri East, Mumbai
p182
sba(i__main__
Place
p183
(dp184
g3
(lp185
VRestaurants
p186
asg6
g20
sg8
VLazeez Biryani
p187
sg10
Vhttp://mumbai.burrp.com/listing/lazeez-biryani_marol_mumbai_restaurants/1501354059
p188
sg12
VMarol
p189
sg14
(lp190
V9967592141
p191
asg19
g57
sg21
VNear ICICI Bank, Andheri (E), Marol, Andheri East, Mumbai
p192
sba(i__main__
Place
p193
(dp194
g3
(lp195
VRestaurants
p196
asg6
g20
sg8
VKanchi
p197
sg10
Vhttp://mumbai.burrp.com/listing/kanchi_marol_mumbai_restaurants/1205563089
p198
sg12
VMarol
p199
sg14
(lp200
V28528002
p201
aV 28528003
p202
asg19
g36
sg21
VMittlal Estate, Andheri - Kurla Road, Marol, Andheri East, Mumbai
p203
sba(i__main__
Place
p204
(dp205
g3
(lp206
VRestaurants
p207
asg6
g20
sg8
VHotel Meenakshi
p208
sg10
Vhttp://mumbai.burrp.com/listing/hotel-meenakshi_marol_mumbai_restaurants/13111855178
p209
sg12
VMarol
p210
sg14
(lp211
V28509570
p212
aV 28517229
p213
aV 9619089609
p214
asg19
g20
sg21
VShop No 3, Nirma Plaza, Makwana Road, Marol, Andheri East, Mumbai
p215
sba(i__main__
Place
p216
(dp217
g3
(lp218
VRestaurants
p219
asg6
g20
sg8
VNew Sansar Restaurant
p220
sg10
Vhttp://mumbai.burrp.com/listing/new-sansar-restaurant_marol_mumbai_restaurants/17311859336
p221
sg12
VMarol
p222
sg14
(lp223
V28501082
p224
asg19
g20
sg21
VAndheri Kurla Road, Marol Naka, Marol, Andheri East, Mumbai
p225
sba(i__main__
Place
p226
(dp227
g3
(lp228
VRestaurants
p229
asg6
g20
sg8
VAnnaleela Restaurant
p230
sg10
Vhttp://mumbai.burrp.com/listing/annaleela-restaurant_marol_mumbai_restaurants/18111860128
p231
sg12
VMarol
p232
sg14
(lp233
V29202140
p234
aV 29204295
p235
aV 29206087
p236
asg19
g20
sg21
VTakiwala Industrial Estate Lane, Marol Maroshi Road, Marol, Andheri East, Mumbai
p237
sba(i__main__
Place
p238
(dp239
g3
(lp240
VRestaurants
p241
asg6
g20
sg8
VSliver Finch Restaurant
p242
sg10
Vhttp://mumbai.burrp.com/listing/sliver-finch-restaurant_marol_mumbai_restaurants/12711863782
p243
sg12
VMarol
p244
sg14
(lp245
V29250428
p246
aV 32161888
p247
aV 32171888
p248
aV 9819674731
p249
asg19
g20
sg21
VShop No 4/5/6, Vinayak Chambers, Military Road, Marol, Andheri East, Mumbai
p250
sba(i__main__
Place
p251
(dp252
g3
(lp253
VRestaurants
p254
asg6
g20
sg8
VSunils Food Court
p255
sg10
Vhttp://mumbai.burrp.com/listing/sunils-food-court_marol_mumbai_restaurants/14511865564
p256
sg12
VMarol
p257
sg14
(lp258
V64278998
p259
aV 9773265956
p260
asg19
g20
sg21
VShop No A/4, Ekta Society, Airport Road, Marol Naka, Near Maharashtra Salon, Marol, Andheri East, Mumbai
p261
sba(i__main__
Place
p262
(dp263
g3
(lp264
VRestaurants
p265
asg6
g20
sg8
VThe China Lawn
p266
sg10
Vhttp://mumbai.burrp.com/listing/the-china-lawn_marol_mumbai_restaurants/19918242910
p267
sg12
VMarol
p268
sg14
(lp269
V28360159
p270
aV 9833995797
p271
asg19
g20
sg21
VPlot No. 13, Shop No. 12, Marol MIDC, Marol, Andheri East, Mumbai
p272
sba(i__main__
Place
p273
(dp274
g3
(lp275
VRestaurants
p276
asg6
g20
sg8
VThe China Lawn
p277
sg10
Vhttp://mumbai.burrp.com/listing/the-china-lawn_marol_mumbai_restaurants/12333895386
p278
sg12
VMarol
p279
sg14
(lp280
V29250087
p281
aV 32985551
p282
aV 9820676783
p283
asg19
g36
sg21
VVemulkar House, 273/3, Marol, Andheri East, Mumbai
p284
sba.