(lp0
(i__main__
Place
p1
(dp2
S'category'
p3
(lp4
VRestaurants
p5
asS'rating'
p6
V4
p7
sS'name'
p8
VCafe Madras
p9
sS'url'
p10
Vhttp://mumbai.burrp.com/listing/cafe-madras_matunga_mumbai_restaurants/199107910
p11
sS'region'
p12
VMatunga
p13
sS'phone'
p14
(lp15
V24014419
p16
asS'cost'
p17
V1
p18
sS'addr'
p19
V38 -B, Circle House, King's Circle, Matunga, Mumbai
p20
sba(i__main__
Place
p21
(dp22
g3
(lp23
VRestaurants
p24
asg6
g7
sg8
VCafe Mysore
p25
sg10
Vhttp://mumbai.burrp.com/listing/cafe-mysore_matunga_mumbai_restaurants/111108198
p26
sg12
VMatunga
p27
sg14
(lp28
V24021230
p29
asg17
V2
p30
sg19
V461, Durlabh Nivas, Bhaudaji Road, Matunga, Mumbai
p31
sba(i__main__
Place
p32
(dp33
g3
(lp34
VRestaurants
p35
asg6
g7
sg8
VA. Ramanayak Udipi Shri Krishna Boarding
p36
sg10
Vhttp://mumbai.burrp.com/listing/a-ramanayak-udipi-shri-krishna-boarding_matunga_mumbai_restaurants/128100881
p37
sg12
VMatunga
p38
sg14
(lp39
V24142422
p40
aV 24143863
p41
asg17
g30
sg19
V1st Floor, LBS Market Bldg., Near Matunga Central Rly Station, Matunga, Mumbai
p42
sba(i__main__
Place
p43
(dp44
g3
(lp45
VRestaurants
p46
asg6
g7
sg8
VHotel Ram Ashraya
p47
sg10
Vhttp://mumbai.burrp.com/listing/hotel-ram-ashraya_matunga_mumbai_restaurants/163140346
p48
sg12
VMatunga
p49
sg14
(lp50
V24142623
p51
aV 24142369
p52
asg17
g30
sg19
VBhandarkar Road, Matunga (Central Railway), Matunga, Mumbai
p53
sba(i__main__
Place
p54
(dp55
g3
(lp56
VRestaurants
p57
asg6
V5
p58
sg8
VMahabhoj
p59
sg10
Vhttp://mumbai.burrp.com/listing/mahabhoj_matunga_mumbai_restaurants/118126891
p60
sg12
VMatunga
p61
sg14
(lp62
V24169216
p63
asg17
g18
sg19
VBhandarkar Road, Near Matunga (Central) Station, Matunga, Mumbai
p64
sba(i__main__
Place
p65
(dp66
g3
(lp67
VRestaurants
p68
asg6
g58
sg8
VA Ramanayak & Sons Udipi
p69
sg10
Vhttp://mumbai.burrp.com/listing/a-ramanayak-sons-udipi_matunga_mumbai_restaurants/129100980
p70
sg12
VMatunga
p71
sg14
(lp72
V24010571
p73
asg17
V0
p74
sg19
V2/461-A, Ram Nivas, King's Circle, Matunga, Mumbai
p75
sba(i__main__
Place
p76
(dp77
g3
(lp78
VRestaurants
p79
asg6
g58
sg8
VMani's 
p80
sg10
Vhttp://mumbai.burrp.com/listing/manis-_matunga_mumbai_restaurants/130128079
p81
sg12
VMatunga
p82
sg14
(lp83
V24021112
p84
asg17
g18
sg19
VDabbawala Sadan, Telang Road, Matunga, Mumbai
p85
sba(i__main__
Place
p86
(dp87
g3
(lp88
VRestaurants
p89
asg6
g7
sg8
VMani's Lunch Home
p90
sg10
Vhttp://mumbai.burrp.com/listing/manis-lunch-home_matunga_mumbai_restaurants/131128178
p91
sg12
VMatunga
p92
sg14
(lp93
V24127188
p94
asg17
g18
sg19
V153 C, Mahskar Bldg, Near Ruia College, Matunga, Mumbai
p95
sba(i__main__
Place
p96
(dp97
g3
(lp98
VRestaurants
p99
aV Ice-cream Parlours
p100
aV Fast Food Shops
p101
aV Juice Parlours
p102
asg6
g7
sg8
VClassic Restaurant
p103
sg10
Vhttp://mumbai.burrp.com/listing/classic-restaurant_matunga_mumbai_restaurants-ice-cream-parlours-fast-food-shops/170771039
p104
sg12
VMatunga
p105
sg14
(lp106
V24096599
p107
aV 24093204
p108
asg17
g30
sg19
VOpposite Don Bosco High School, Matunga, Mumbai
p109
sba(i__main__
Place
p110
(dp111
g3
(lp112
VRestaurants
p113
asg6
g7
sg8
VRasna Punjab
p114
sg10
Vhttp://mumbai.burrp.com/listing/rasna-punjab_kings-circle_mumbai_restaurants/1801348029
p115
sg12
VKings Circle
p116
sg14
(lp117
V24096180
p118
aV 24095863
p119
asg17
V3
p120
sg19
V466, Mehta Building, Near Khalsa College, Kings Circle, Matunga, Mumbai
p121
sba(i__main__
Place
p122
(dp123
g3
(lp124
VIce-cream Parlours
p125
aV Outdoor Caterers
p126
aV Juice Parlours
p127
aV Restaurants
p128
asg6
g7
sg8
VPankaj Juice Centre
p129
sg10
Vhttp://mumbai.burrp.com/listing/pankaj-juice-centre_matunga_mumbai_ice-cream-parlours-outdoor-caterers-juice-parlours/15876851
p130
sg12
VMatunga
p131
sg14
(lp132
V24016654
p133
aV 24013685
p134
aV 24142009
p135
aV 24161010
p136
asg17
g30
sg19
VOpp. Maheshwari Udyan, Bhaudaji Road, Matunga, Mumbai
p137
sba(i__main__
Place
p138
(dp139
g3
(lp140
VRestaurants
p141
asg6
g7
sg8
VNanumal Bhojraj
p142
sg10
Vhttp://mumbai.burrp.com/listing/nanumal-bhojraj_matunga_mumbai_restaurants/1575791752
p143
sg12
VMatunga
p144
sg14
(lp145
V24010704
p146
aV 24024030
p147
aV 24024031
p148
aV 7666114999
p149
asg17
g30
sg19
VPlot No. 3 & 4, Gani Mansion Building, Near Sahakari Bhandar, Matunga, Mumbai
p150
sba(i__main__
Place
p151
(dp152
g3
(lp153
VRestaurants
p154
aV Bars & Pubs
p155
asg6
g7
sg8
VSaffron
p156
sg10
Vhttp://mumbai.burrp.com/listing/saffron_matunga_mumbai_restaurants-bars-pubs/132803277
p157
sg12
VMatunga
p158
sg14
(lp159
V24099827
p160
asg17
g30
sg19
VNorth Indian Association's Club, 1st Floor, Bhaudaji Road, Matunga, Mumbai
p161
sba(i__main__
Place
p162
(dp163
g3
(lp164
VRestaurants
p165
asg6
g58
sg8
VManis Lunch Home
p166
sg10
Vhttp://mumbai.burrp.com/listing/manis-lunch-home_matunga_mumbai_restaurants/17511967534
p167
sg12
VMatunga
p168
sg14
(lp169
V24127188
p170
aV 9820282643
p171
asg17
g18
sg19
VPlot No 153 C, Mahaskar Building, L J Road, Matunga, Mumbai
p172
sba(i__main__
Place
p173
(dp174
g3
(lp175
VRestaurants
p176
asg6
g7
sg8
VGarnish
p177
sg10
Vhttp://mumbai.burrp.com/listing/garnish_matunga_mumbai_restaurants/188115821
p178
sg12
VMatunga
p179
sg14
(lp180
V24022200
p181
asg17
g74
sg19
V5, Shri Ram Bhuvan, Opposite Arora Cinema, Matunga, Mumbai
p182
sba(i__main__
Place
p183
(dp184
g3
(lp185
VRestaurants
p186
asg6
g7
sg8
VDp's The Fast Food Centre
p187
sg10
Vhttp://mumbai.burrp.com/listing/dps-the-fast-food-centre_matunga_mumbai_restaurants/17912012930
p188
sg12
VMatunga
p189
sg14
(lp190
V24145326
p191
aV 24161028
p192
aV 24161929
p193
asg17
g74
sg19
VBuilding No 153, Nandadeep, Matunga Central, Matunga, Mumbai
p194
sba(i__main__
Place
p195
(dp196
g3
(lp197
VRestaurants
p198
asg6
g120
sg8
VFeast
p199
sg10
Vhttp://mumbai.burrp.com/listing/feast_matunga_mumbai_restaurants/1341361475
p200
sg12
VMatunga
p201
sg14
(lp202
V24080704
p203
asg17
g120
sg19
VShop No. 3, Plot No 28, Gani Mansion Bldg, Behind Arora Cinema, Matunga, Mumbai
p204
sba(i__main__
Place
p205
(dp206
g3
(lp207
VRestaurants
p208
asg6
g120
sg8
VOnly Parathas
p209
sg10
Vhttp://mumbai.burrp.com/listing/only-parathas_matunga_mumbai_restaurants/1576466752
p210
sg12
VMatunga
p211
sg14
(lp212
V65758118
p213
aV 65758228
p214
asg17
g74
sg19
V471, Radha Bhavan, Hedal Wadi Road, Matunga, Mumbai
p215
sba(i__main__
Place
p216
(dp217
g3
(lp218
VFast Food Shops
p219
aV Restaurants
p220
asg6
g74
sg8
VClassic Fast Food
p221
sg10
Vhttp://mumbai.burrp.com/listing/classic-fast-food_matunga_mumbai_fast-food-shops-restaurants/16512029544
p222
sg12
VMatunga
p223
sg14
(lp224
V24025147
p225
aV 24093204
p226
aV 24096447
p227
aV 24096599
p228
aV  24019352
p229
asg17
g30
sg19
V466, Mehta Building, Nathalal Parekh Marg, Matunga, Mumbai
p230
sba(i__main__
Place
p231
(dp232
g3
(lp233
VRestaurants
p234
asg6
g74
sg8
VAhar Restaurant
p235
sg10
Vhttp://mumbai.burrp.com/listing/ahar-restaurant_kings-circle_mumbai_restaurants/16111021148
p236
sg12
VKings Circle
p237
sg14
(lp238
V24092706
p239
aV 24096764
p240
asg17
g74
sg19
VManiklal Mansion, Dr Babasaheb Ambedkar Road, Kings Circle, Matunga, Mumbai
p241
sba(i__main__
Place
p242
(dp243
g3
(lp244
VRestaurants
p245
asg6
g74
sg8
VAashray Bar & Restaurant
p246
sg10
Vhttp://mumbai.burrp.com/listing/aashray-bar-restaurant_matunga_mumbai_restaurants/17312003336
p247
sg12
VMatunga
p248
sg14
(lp249
V24030055
p250
aV 9322266987
p251
asg17
g74
sg19
VD/11, Shop No 8, Matunga Labour Camp, Jasmin Mill Road, Matunga, Mumbai
p252
sba(i__main__
Place
p253
(dp254
g3
(lp255
VRestaurants
p256
asg6
g74
sg8
VSantosh Pav Bhaji
p257
sg10
Vhttp://mumbai.burrp.com/listing/santosh-pav-bhaji_matunga_mumbai_restaurants/18552524
p258
sg12
VMatunga
p259
sg14
(lp260
V24116368
p261
asg17
g74
sg19
VBehind VJTI College (Five Gardens), HR Mahajani Road, Matunga, Mumbai
p262
sba(i__main__
Place
p263
(dp264
g3
(lp265
VRestaurants
p266
asg6
g74
sg8
VLaxmi Hotel
p267
sg10
Vhttp://mumbai.burrp.com/listing/laxmi-hotel_kings-circle_mumbai_restaurants/13911018970
p268
sg12
VKings Circle
p269
sg14
(lp270
V24095850
p271
aV 24096556
p272
asg17
g74
sg19
VBuilding No 468 A, Hanuman Prasad Building, Kings Circle, Matunga, Mumbai
p273
sba(i__main__
Place
p274
(dp275
g3
(lp276
VRestaurants
p277
asg6
g74
sg8
VHotel Bharath
p278
sg10
Vhttp://mumbai.burrp.com/listing/hotel-bharath_matunga_mumbai_restaurants/11111961198
p279
sg12
VMatunga
p280
sg14
(lp281
V24071839
p282
asg17
g74
sg19
VRoom No 5/6, Block No 10, Transit Camp, Matunga, Mumbai
p283
sba(i__main__
Place
p284
(dp285
g3
(lp286
VRestaurants
p287
asg6
g74
sg8
VSadanand Refreshment
p288
sg10
Vhttp://mumbai.burrp.com/listing/sadanand-refreshment_matunga_mumbai_restaurants/14311982366
p289
sg12
VMatunga
p290
sg14
(lp291
V24374729
p292
asg17
g74
sg19
VKrishna Niwas, T H Kataria Marg, Matunga, Mumbai
p293
sba(i__main__
Place
p294
(dp295
g3
(lp296
VBars & Pubs
p297
aV Restaurants
p298
asg6
g74
sg8
VSamudra Bar
p299
sg10
Vhttp://mumbai.burrp.com/listing/samudra-bar_matunga_mumbai_bars-pubs-restaurants/15311983356
p300
sg12
VMatunga
p301
sg14
(lp302
V24326451
p303
asg17
g74
sg19
VShop 18, Elavia Bldg, Manmala Tank Rd, Matunga, Mumbai
p304
sba(i__main__
Place
p305
(dp306
g3
(lp307
VBars & Pubs
p308
aV Restaurants
p309
asg6
g74
sg8
VVikas Bar & Restaurant
p310
sg10
Vhttp://mumbai.burrp.com/listing/vikas-bar-restaurant_matunga_mumbai_bars-pubs-restaurants/17311994336
p311
sg12
VMatunga
p312
sg14
(lp313
V24322428
p314
aV 24372071
p315
asg17
g74
sg19
VT H  Kataria Marg, Near Matunga Western Railway, Matunga, Mumbai
p316
sba(i__main__
Place
p317
(dp318
g3
(lp319
VRestaurants
p320
asg6
g74
sg8
VRamanayak  Udipi Shri Krishna Boarding
p321
sg10
Vhttp://mumbai.burrp.com/listing/ramanayak-udipi-shri-krishna-boarding_matunga_mumbai_restaurants/19711996712
p322
sg12
VMatunga
p323
sg14
(lp324
V24142422
p325
aV 24143863
p326
asg17
g74
sg19
V1st Floor, LBS Market Building, Matunga, Mumbai
p327
sba(i__main__
Place
p328
(dp329
g3
(lp330
VRestaurants
p331
aV Bars & Pubs
p332
asg6
g74
sg8
VRangoli Restaurant
p333
sg10
Vhttp://mumbai.burrp.com/listing/rangoli-restaurant_matunga_mumbai_restaurants-bars-pubs/13711999772
p334
sg12
VMatunga
p335
sg14
(lp336
V24079999
p337
asg17
g74
sg19
V2nd Floor, Gujarati Club Building, N  P Marg, Matunga, Mumbai
p338
sba(i__main__
Place
p339
(dp340
g3
(lp341
VRestaurants
p342
asg6
g74
sg8
VPaul Chinese Fast Food
p343
sg10
Vhttp://mumbai.burrp.com/listing/paul-chinese-fast-food_matunga_mumbai_restaurants/19712041712
p344
sg12
VMatunga
p345
sg14
(lp346
V24444452
p347
aV 24444052
p348
aV 65059822
p349
aV 9833505823
p350
asg17
g30
sg19
VShop No 210 Bidaye Wadi, T.H.Kataria Marg, Mahim, Matunga, Mumbai
p351
sba(i__main__
Place
p352
(dp353
g3
(lp354
VRestaurants
p355
asg6
g74
sg8
VVikas Restaurant And Bar
p356
sg10
Vhttp://mumbai.burrp.com/listing/vikas-restaurant-and-bar_th-kataria-marg_mumbai_restaurants/15913207950
p357
sg12
VTH Kataria Marg
p358
sg14
(lp359
V24322428
p360
aV 24372071
p361
asg17
g74
sg19
VRatan Terrace, Below Matunga Bridge, TH Kataria Marg, Matunga, Mumbai
p362
sba.