(lp0
(i__main__
Place
p1
(dp2
S'category'
p3
(lp4
VRestaurants
p5
asS'rating'
p6
V5
p7
sS'name'
p8
VSpice Garden Restaurant And Bar
p9
sS'url'
p10
Vhttp://mumbai.burrp.com/listing/spice-garden-restaurant-and-bar_kashi-mira_thane_restaurants/17314262336
p11
sS'region'
p12
VKashi Mira
p13
sS'phone'
p14
(lp15
V28455784
p16
asS'cost'
p17
V0
p18
sS'addr'
p19
VGhodbunder Village Road, Post Mira, Off Western Express Highway, Kashi Mira, Mira Road, Thane
p20
sba(i__main__
Place
p21
(dp22
g3
(lp23
VRestaurants
p24
asg6
g7
sg8
VShahi Family Restaurant
p25
sg10
Vhttp://mumbai.burrp.com/listing/shahi-family-restaurant_mira-road_thane_restaurants/18522516524
p26
sg12
VMira Road
p27
sg14
(lp28
V28110310
p29
aV 28125709
p30
aV 28103536
p31
asg17
g18
sg19
VSheetal Sai, M.T.N.L. Road, Sheetal Nagar, Mira Road, Thane
p32
sba(i__main__
Place
p33
(dp34
g3
(lp35
VRestaurants
p36
asg6
g18
sg8
VDelhi Darbar Inn
p37
sg10
Vhttp://mumbai.burrp.com/listing/delhi-darbar-inn_kashi-mira_thane_restaurants/17914262930
p38
sg12
VKashi Mira
p39
sg14
(lp40
V29451177
p41
aV 29451188
p42
aV 9619223688
p43
aV 9870461202
p44
asg17
g18
sg19
VNational Highway No 8, Kashi Mira, Mira Road, Thane
p45
sba(i__main__
Place
p46
(dp47
g3
(lp48
VRestaurants
p49
asg6
g18
sg8
VFlavors
p50
sg10
Vhttp://mumbai.burrp.com/listing/flavors_mira-road_thane_restaurants/15323809356
p51
sg12
VMira Road
p52
sg14
(lp53
V28550101
p54
aV 28550102
p55
aV 28550103
p56
asg17
V2
p57
sg19
VShanti Nagar, Sector No 11, Station Road, Mira Road, Thane
p58
sba(i__main__
Place
p59
(dp60
g3
(lp61
VOutdoor Caterers
p62
aV Restaurants
p63
asg6
g18
sg8
VSpice Court
p64
sg10
Vhttp://mumbai.burrp.com/listing/spice-court_mira-bhayander-road_thane_outdoor-caterers-restaurants/14514349564
p65
sg12
VMira Bhayander Road
p66
sg14
(lp67
V28122006
p68
aV 28122007
p69
asg17
g18
sg19
VSai Karishma  Building, Mira Bhayander Road, Mira Road, Thane
p70
sba(i__main__
Place
p71
(dp72
g3
(lp73
VRestaurants
p74
asg6
g18
sg8
VAvirat Restaurant
p75
sg10
Vhttp://mumbai.burrp.com/listing/avirat-restaurant_mira-road_thane_restaurants/12114374188
p76
sg12
VMira Road
p77
sg14
(lp78
V28109131
p79
aV 28113046
p80
aV 9819402901
p81
asg17
g18
sg19
VShop No 12 And 13, Building No 63, Sector No 1, Shanti Nagar, Mira Road, Thane
p82
sba(i__main__
Place
p83
(dp84
g3
(lp85
VOutdoor Caterers
p86
aV Restaurants
p87
asg6
g18
sg8
VHotel Grand Emerald
p88
sg10
Vhttp://mumbai.burrp.com/listing/hotel-grand-emerald_mira-bhayander-road_thane_outdoor-caterers-restaurants/19722661712
p89
sg12
VMira Bhayander Road
p90
sg14
(lp91
V65100773
p92
aV 9004577448
p93
asg17
g18
sg19
VBesides Vijay Sales, Mira Bhayander Road, Mira Road, Thane
p94
sba(i__main__
Place
p95
(dp96
g3
(lp97
VRestaurants
p98
asg6
g18
sg8
VDil Se Nimantran
p99
sg10
Vhttp://mumbai.burrp.com/listing/dil-se-nimantran_mira-road_thane_restaurants/17114370138
p100
sg12
VMira Road
p101
sg14
(lp102
V28552464
p103
aV 28555155
p104
asg17
g57
sg19
VShop No. 2 & 3, B Wing, Building No. 51, Shanti Nagar, Sector No. 1, Mira Road (E), Mira Road, Thane
p105
sba(i__main__
Place
p106
(dp107
g3
(lp108
VRestaurants
p109
aV Hotels
p110
asg6
g18
sg8
VHotel Ajit Palace
p111
sg10
Vhttp://mumbai.burrp.com/listing/hotel-ajit-palace_mira-road_thane_restaurants-hotels/13314375376
p112
sg12
VMira Road
p113
sg14
(lp114
V28454365
p115
aV 28455069
p116
aV 28457455
p117
asg17
g18
sg19
VMira Post, Western Express Highway, Mira Road, Thane
p118
sba(i__main__
Place
p119
(dp120
g3
(lp121
VRestaurants
p122
aV Hotels
p123
asg6
g18
sg8
VWestern Hotel
p124
sg10
Vhttp://mumbai.burrp.com/listing/western-hotel_mira-road_thane_restaurants-hotels/16114414148
p125
sg12
VMira Road
p126
sg14
(lp127
V28457272
p128
aV 28457273
p129
asg17
g18
sg19
VDahisar Check Naka, National Highway No 8, Mira Road, Thane
p130
sba(i__main__
Place
p131
(dp132
g3
(lp133
VRestaurants
p134
asg6
g18
sg8
VAshok Family Restaurant & Bar
p135
sg10
Vhttp://mumbai.burrp.com/listing/ashok-family-restaurant-bar_mira-bhayander-road_thane_restaurants/18122660128
p136
sg12
VMira Bhayander Road
p137
sg14
(lp138
V28117694
p139
aV 28129934
p140
asg17
g18
sg19
VNext to Haria's Dream Park, Mira Bhayander Road, Mira Road, Thane
p141
sba(i__main__
Place
p142
(dp143
g3
(lp144
VRestaurants
p145
asg6
g18
sg8
VMani Place
p146
sg10
Vhttp://mumbai.burrp.com/listing/mani-place_mira-bhayander-road_thane_restaurants/11922662990
p147
sg12
VMira Bhayander Road
p148
sg14
(lp149
V28123616
p150
aV 28124827
p151
aV 7738772839
p152
asg17
g18
sg19
VNirav Park, Opposite McDonald's, Mira Bhayander Road, Mira Road, Thane
p153
sba(i__main__
Place
p154
(dp155
g3
(lp156
VRestaurants
p157
asg6
g18
sg8
VGalaxy Restaurant
p158
sg10
Vhttp://mumbai.burrp.com/listing/galaxy-restaurant_kashi-mira_thane_restaurants/18314263326
p159
sg12
VKashi Mira
p160
sg14
(lp161
V28455557
p162
asg17
g18
sg19
VNational Highway No 8, Near Western Hotel, Kashi Mira, Mira Road, Thane
p163
sba(i__main__
Place
p164
(dp165
g3
(lp166
VRestaurants
p167
asg6
g18
sg8
VR K Inn Hotel
p168
sg10
Vhttp://mumbai.burrp.com/listing/r-k-inn-hotel_mira-road_thane_restaurants/13514366574
p169
sg12
VMira Road
p170
sg14
(lp171
V28127247
p172
aV 28127248
p173
asg17
g18
sg19
VMira Bhayandar Road, Opposite Shiver Garden, Mira Road, Thane
p174
sba(i__main__
Place
p175
(dp176
g3
(lp177
VRestaurants
p178
asg6
g18
sg8
VNihal Corner Restaurant
p179
sg10
Vhttp://mumbai.burrp.com/listing/nihal-corner-restaurant_mira-road_thane_restaurants/17514370534
p180
sg12
VMira Road
p181
sg14
(lp182
V28104495
p183
aV 28109444
p184
aV 28120567
p185
asg17
g18
sg19
VMilap Apartment, Naya Nagar , Mira Road, Thane
p186
sba(i__main__
Place
p187
(dp188
g3
(lp189
VRestaurants
p190
asg6
g18
sg8
VNavrang Restaurant
p191
sg10
Vhttp://mumbai.burrp.com/listing/navrang-restaurant_mira-road_thane_restaurants/17714370732
p192
sg12
VMira Road
p193
sg14
(lp194
V28183226
p195
aV 28183963
p196
asg17
g18
sg19
VShop No 1/2/3, Ground Floor, Porwal Complex, 60 Feet Road, Mira Road, Thane
p197
sba(i__main__
Place
p198
(dp199
g3
(lp200
VRestaurants
p201
asg6
g18
sg8
VFood Inn Restaurant
p202
sg10
Vhttp://mumbai.burrp.com/listing/food-inn-restaurant_kashi-mira_thane_restaurants/16914261940
p203
sg12
VKashi Mira
p204
sg14
(lp205
V28457272
p206
aV 28457273
p207
aV 28457686
p208
aV 64114099
p209
asg17
g18
sg19
VC/o Western Hotel, Western Express Highway No 8, Kashi Mira, Mira Road, Thane
p210
sba(i__main__
Place
p211
(dp212
g3
(lp213
VRestaurants
p214
aV Juice Parlours
p215
asg6
g18
sg8
VLajawaab Restaurant
p216
sg10
Vhttp://mumbai.burrp.com/listing/lajawaab-restaurant_mira-bhayander-road_thane_restaurants-juice-parlours/11914346990
p217
sg12
VMira Bhayander Road
p218
sg14
(lp219
V28455457
p220
asg17
g18
sg19
VOff Western Express Highway, Near Samrat Hotel, Mira Bhayander Road, Mira Road, Thane
p221
sba(i__main__
Place
p222
(dp223
g3
(lp224
VRestaurants
p225
asg6
g18
sg8
VHotel Sanman
p226
sg10
Vhttp://mumbai.burrp.com/listing/hotel-sanman_mira-road_thane_restaurants/11714355792
p227
sg12
VMira Road
p228
sg14
(lp229
V28120420
p230
aV 28550367
p231
aV 9167023516
p232
asg17
g18
sg19
VSheetal Nagar, Mira Road, Thane
p233
sba(i__main__
Place
p234
(dp235
g3
(lp236
VRestaurants
p237
asg6
g18
sg8
VPushpak Restaurant And Bar
p238
sg10
Vhttp://mumbai.burrp.com/listing/pushpak-restaurant-and-bar_mira-road_thane_restaurants/14914367960
p239
sg12
VMira Road
p240
sg14
(lp241
V28113419
p242
aV 28127245
p243
asg17
g18
sg19
VSheetal Sai Co Operative Housing Society, Sheetal Nagar    , Mira Road, Thane
p244
sba(i__main__
Place
p245
(dp246
g3
(lp247
VRestaurants
p248
asg6
g18
sg8
VNew Kheteshwar Bhojnalay
p249
sg10
Vhttp://mumbai.burrp.com/listing/new-kheteshwar-bhojnalay_mira-road_thane_restaurants/17914370930
p250
sg12
VMira Road
p251
sg14
(lp252
V
p253
aV 9833604004
p254
asg17
g18
sg19
VShop No 1/2, Building No B 5, Sector 2, Shanti Nagar, Mira Road, Thane
p255
sba(i__main__
Place
p256
(dp257
g3
(lp258
VRestaurants
p259
asg6
g18
sg8
VArfa Restaurant
p260
sg10
Vhttp://mumbai.burrp.com/listing/arfa-restaurant_mira-road_thane_restaurants/12314374386
p261
sg12
VMira Road
p262
sg14
(lp263
V28114488
p264
aV 28116666
p265
aV 28551166
p266
aV 28553142
p267
asg17
g18
sg19
VShop No. 2&3, Building No. B-34, Sector No. 11, Heli Shanti Nagar Co-Operative Society, Mira Road, Thane
p268
sba(i__main__
Place
p269
(dp270
g3
(lp271
VRestaurants
p272
asg6
g18
sg8
VApurva Restaurant And Bar
p273
sg10
Vhttp://mumbai.burrp.com/listing/apurva-restaurant-and-bar_mira-road_thane_restaurants/12914374980
p274
sg12
VMira Road
p275
sg14
(lp276
V28112371
p277
asg17
g18
sg19
VSheetal Nagar, MTNL Road, Mira Road, Thane
p278
sba(i__main__
Place
p279
(dp280
g3
(lp281
VRestaurants
p282
asg6
g18
sg8
VSanman Restaurant
p283
sg10
Vhttp://mumbai.burrp.com/listing/sanman-restaurant_mira-road_thane_restaurants/18714389722
p284
sg12
VMira Road
p285
sg14
(lp286
V28120420
p287
aV 28550367
p288
asg17
g18
sg19
VSheetal Nagar, Mira Road, Thane
p289
sba(i__main__
Place
p290
(dp291
g3
(lp292
VRestaurants
p293
asg6
g18
sg8
VSmoke N Spice
p294
sg10
Vhttp://mumbai.burrp.com/listing/smoke-n-spice_mira-road_thane_restaurants/18914389920
p295
sg12
VMira Road
p296
sg14
(lp297
V28117575
p298
aV 9819984973
p299
aV 9892582726
p300
asg17
g18
sg19
VShop No 11, Ground Floor, Asmita Singapore Plaza, Naya Nagar, Mira Road, Thane
p301
sba(i__main__
Place
p302
(dp303
g3
(lp304
VRestaurants
p305
asg6
g18
sg8
VSanjog Restaurant
p306
sg10
Vhttp://mumbai.burrp.com/listing/sanjog-restaurant_mira-road_thane_restaurants/11114391198
p307
sg12
VMira Road
p308
sg14
(lp309
V28126668
p310
aV 28129915
p311
asg17
g18
sg19
VMira Bhayandar Road, Mira Road, Thane
p312
sba(i__main__
Place
p313
(dp314
g3
(lp315
VRestaurants
p316
asg6
g18
sg8
VShabri Restaurant
p317
sg10
Vhttp://mumbai.burrp.com/listing/shabri-restaurant_mira-road_thane_restaurants/11714391792
p318
sg12
VMira Road
p319
sg14
(lp320
V28102508
p321
aV 28554568
p322
asg17
g18
sg19
VBuilding  No 16/17, Harsh Unique Building, Shanti Park, Mira Road, Thane
p323
sba(i__main__
Place
p324
(dp325
g3
(lp326
VHotels
p327
aV Restaurants
p328
asg6
g18
sg8
VPayyade  Residency  Pvt Ltd
p329
sg10
Vhttp://mumbai.burrp.com/listing/payyade-residency-pvt-ltd_mira-road_thane_hotels-restaurants/12914392980
p330
sg12
VMira Road
p331
sg14
(lp332
V28131744
p333
aV 28131766
p334
asg17
g18
sg19
VGolden Nest Area, Mira Bhayander Road, Mira Road, Thane
p335
sba(i__main__
Place
p336
(dp337
g3
(lp338
VRestaurants
p339
asg6
g18
sg8
VSai Sannidhi Restaurant
p340
sg10
Vhttp://mumbai.burrp.com/listing/sai-sannidhi-restaurant_mira-road_thane_restaurants/15314395356
p341
sg12
VMira Road
p342
sg14
(lp343
V28453333
p344
aV 28458065
p345
asg17
g18
sg19
VTara Singh Compound, Dahisar Checknaka, Western Express Highway, Mira Road, Thane
p346
sba(i__main__
Place
p347
(dp348
g3
(lp349
VRestaurants
p350
asg6
g18
sg8
VSameer Chinese Restaurant
p351
sg10
Vhttp://mumbai.burrp.com/listing/sameer-chinese-restaurant_mira-road_thane_restaurants/15714395752
p352
sg12
VMira Road
p353
sg14
(lp354
g253
aV 9819808119
p355
asg17
g18
sg19
VShop No 18 , Sheetal Palace Building, Sheetal Nagar, Mira Road, Thane
p356
sba(i__main__
Place
p357
(dp358
g3
(lp359
VRestaurants
p360
asg6
g18
sg8
VSaman Restaurant And Bar
p361
sg10
Vhttp://mumbai.burrp.com/listing/saman-restaurant-and-bar_mira-road_thane_restaurants/17514397534
p362
sg12
VMira Road
p363
sg14
(lp364
V28120420
p365
asg17
g18
sg19
VSheetal Nagar , MTNL Road, Mira Road, Thane
p366
sba(i__main__
Place
p367
(dp368
g3
(lp369
VRestaurants
p370
asg6
g18
sg8
VHavoc Chinese Restaurant
p371
sg10
Vhttp://mumbai.burrp.com/listing/havoc-chinese-restaurant_mira-road_thane_restaurants/13514402574
p372
sg12
VMira Road
p373
sg14
(lp374
V28106605
p375
aV 9820478898
p376
asg17
g18
sg19
VShop No 6, Ground Floor, A/1 Unique Accord Building, Shanti Park, Opposite Ram Mandir, Mira Road, Thane
p377
sba(i__main__
Place
p378
(dp379
g3
(lp380
VRestaurants
p381
asg6
g18
sg8
VHardik Palace Hotel
p382
sg10
Vhttp://mumbai.burrp.com/listing/hardik-palace-hotel_mira-road_thane_restaurants/15514404554
p383
sg12
VMira Road
p384
sg14
(lp385
V28120085
p386
aV 28124800
p387
aV 28126472
p388
asg17
g18
sg19
VRawal Nagar, Near New Post Office, Mira Road, Thane
p389
sba(i__main__
Place
p390
(dp391
g3
(lp392
VHotels
p393
aV Restaurants
p394
asg6
g18
sg8
VVice Roy Hotel
p395
sg10
Vhttp://mumbai.burrp.com/listing/vice-roy-hotel_mira-road_thane_hotels-restaurants/17514406534
p396
sg12
VMira Road
p397
sg14
(lp398
V28552063
p399
asg17
g18
sg19
VShri Ram Apartments, Shanti Park, Mira Road, Thane
p400
sba(i__main__
Place
p401
(dp402
g3
(lp403
VRestaurants
p404
asg6
g18
sg8
VVidya Restaurant
p405
sg10
Vhttp://mumbai.burrp.com/listing/vidya-restaurant_mira-road_thane_restaurants/17914406930
p406
sg12
VMira Road
p407
sg14
(lp408
V24591544
p409
aV 28123686
p410
aV 28129011
p411
aV 65755621
p412
asg17
g18
sg19
VShop No 17/18, N G Estate, Mira Bhayandar Road, Near Sai Petrol Pump, Mira Road, Thane
p413
sba(i__main__
Place
p414
(dp415
g3
(lp416
VRestaurants
p417
asg6
g18
sg8
VBallistic Barbeque & Grill
p418
sg10
Vhttp://mumbai.burrp.com/listing/ballistic-barbeque-grill_mira-bhayander-road_thane_restaurants/15122657158
p419
sg12
VMira Bhayander Road
p420
sg14
(lp421
V65347134
p422
aV 65347407
p423
asg17
g18
sg19
VShop No.1, Survey No.143, Mira Bhayander Road, Mira Road, Thane
p424
sba(i__main__
Place
p425
(dp426
g3
(lp427
VRestaurants
p428
asg6
g18
sg8
VKabab King
p429
sg10
Vhttp://mumbai.burrp.com/listing/kabab-king_mira-bhayander-road_thane_restaurants/17322659336
p430
sg12
VMira Bhayander Road
p431
sg14
(lp432
V65222969
p433
aV 28121511
p434
asg17
g18
sg19
VShop No.1, ' A ' Wing, Ostwal Orbit, Mira Bhayander Road, Mira Road, Thane
p435
sba.