(lp0
(i__main__
Place
p1
(dp2
S'category'
p3
(lp4
VRestaurants
p5
asS'rating'
p6
V0
p7
sS'name'
p8
VMahendra Dua
p9
sS'url'
p10
Vhttp://mumbai.burrp.com/listing/mahendra-dua_mori-road_mumbai_restaurants/18912085920
p11
sS'region'
p12
VMori Road
p13
sS'phone'
p14
(lp15
V
p16
aV 9820599519
p17
asS'cost'
p18
g7
sS'addr'
p19
VShop No 16, Building No 18, Navjeevan Colony, Near Sunder Cafe, Mori Road, Mahim, Mumbai
p20
sba.