(lp0
(i__main__
Place
p1
(dp2
S'category'
p3
(lp4
VRestaurants
p5
asS'rating'
p6
V0
p7
sS'name'
p8
VRamdev Restaurant
p9
sS'url'
p10
Vhttp://mumbai.burrp.com/listing/ramdev-restaurant_mumbai-samachar-marg_mumbai_restaurants/17712336732
p11
sS'region'
p12
VMumbai Samachar Marg
p13
sS'phone'
p14
(lp15
V22654655
p16
aV 22654656
p17
asS'cost'
p18
g7
sS'addr'
p19
V24/A, Raja Bahadur Building, Mumbai Samachar Marg, Fort, Mumbai
p20
sba.