(lp0
(i__main__
Place
p1
(dp2
S'category'
p3
(lp4
VRestaurants
p5
asS'rating'
p6
V4
p7
sS'name'
p8
VSnack
p9
sS'url'
p10
Vhttp://mumbai.burrp.com/listing/snack-in-the-box_new-prabhadevi-road_mumbai_restaurants/16521920544
p11
sS'region'
p12
VNew Prabhadevi Road
p13
sS'phone'
p14
(lp15
V24212220
p16
aV 24212221
p17
asS'cost'
p18
V1
p19
sS'addr'
p20
VShop No. 3, Shivalik Building, Dr AM Marg, New Prabhadevi Road, Prabhadevi, Mumbai
p21
sba.