(lp0
(i__main__
Place
p1
(dp2
S'category'
p3
(lp4
VCafes
p5
aV Restaurants
p6
asS'rating'
p7
V4
p8
sS'name'
p9
VThe Cafe
p10
sS'url'
p11
Vhttp://mumbai.burrp.com/listing/the-cafe_pali-hill_mumbai_cafes-restaurants/1552164554
p12
sS'region'
p13
VPali Hill
p14
sS'phone'
p15
(lp16
V66969000
p17
asS'cost'
p18
V3
p19
sS'addr'
p20
VSeventh Floor, 331, Dr. Ambedkar Road, Pali Hill, Bandra West, Mumbai
p21
sba.