(lp0
(i__main__
Place
p1
(dp2
S'category'
p3
(lp4
VBars & Pubs
p5
aV Restaurants
p6
asS'rating'
p7
V3
p8
sS'name'
p9
VSunil Restaurant & Bar
p10
sS'url'
p11
Vhttp://mumbai.burrp.com/listing/sunil-restaurant-bar_pant-nagar_mumbai_bars-pubs-restaurants/11912519990
p12
sS'region'
p13
VPant Nagar
p14
sS'phone'
p15
(lp16
V25156859
p17
aV 25156861
p18
asS'cost'
p19
V0
p20
sS'addr'
p21
VDawde Chawl, Off 90 Ft Rd, Pant Nagar, Ghatkopar East, Mumbai
p22
sba.