(lp0
(i__main__
Place
p1
(dp2
S'category'
p3
(lp4
VRestaurants
p5
asS'rating'
p6
V4
p7
sS'name'
p8
VChina Valley
p9
sS'url'
p10
Vhttp://mumbai.burrp.com/listing/china-valley_prabhadevi_mumbai_restaurants/140111069
p11
sS'region'
p12
VPrabhadevi
p13
sS'phone'
p14
(lp15
V24300272
p16
aV 24980035
p17
aV 24329543
p18
asS'cost'
p19
V0
p20
sS'addr'
p21
VJayant Villa Co-Operative Housing Society, Appasaheb Marathe Road, Prabhadevi, Mumbai
p22
sba(i__main__
Place
p23
(dp24
g3
(lp25
VRestaurants
p26
asg6
g7
sg8
VGarnish
p27
sg10
Vhttp://mumbai.burrp.com/listing/garnish_prabhadevi_mumbai_restaurants/196485613
p28
sg12
VPrabhadevi
p29
sg14
(lp30
V24322137
p31
aV 24322147
p32
asg19
V3
p33
sg21
VJohn Louis Mansion, Veer Savarkar Marg, Behind Prabhadevi Bus Stop, Prabhadevi, Mumbai
p34
sba(i__main__
Place
p35
(dp36
g3
(lp37
VRestaurants
p38
asg6
g7
sg8
VSnack
p39
sg10
Vhttp://mumbai.burrp.com/listing/snack-in-the-box_new-prabhadevi-road_mumbai_restaurants/16521920544
p40
sg12
VNew Prabhadevi Road
p41
sg14
(lp42
V24212220
p43
aV 24212221
p44
asg19
V1
p45
sg21
VShop No. 3, Shivalik Building, Dr AM Marg, New Prabhadevi Road, Prabhadevi, Mumbai
p46
sba(i__main__
Place
p47
(dp48
g3
(lp49
VRestaurants
p50
asg6
g7
sg8
VChina Spice
p51
sg10
Vhttp://mumbai.burrp.com/listing/china-spice_prabhadevi_mumbai_restaurants/1281945881
p52
sg12
VPrabhadevi
p53
sg14
(lp54
V24222555
p55
aV 24333666
p56
asg19
V2
p57
sg21
VS.K. Bole Rd, Dadar - Prabhadevi, Prabhadevi, Mumbai
p58
sba(i__main__
Place
p59
(dp60
g3
(lp61
VRestaurants
p62
asg6
g33
sg8
VDowntown Dhaba
p63
sg10
Vhttp://mumbai.burrp.com/listing/downtown-dhaba_prabhadevi_mumbai_restaurants/149732960
p64
sg12
VPrabhadevi
p65
sg14
(lp66
V24376685
p67
aV 65003432
p68
aV 9819337934
p69
asg19
g45
sg21
V384, Veer Savarkar Marg, Near Vijay Sales, Prabhadevi, Mumbai
p70
sba(i__main__
Place
p71
(dp72
g3
(lp73
VOutdoor Caterers
p74
aV Restaurants
p75
asg6
g33
sg8
VMalabar Koast
p76
sg10
Vhttp://mumbai.burrp.com/listing/malabar-koast_prabhadevi_mumbai_outdoor-caterers-restaurants/1496978960
p77
sg12
VPrabhadevi
p78
sg14
(lp79
V32266161
p80
aV 9820550404
p81
asg19
g20
sg21
V9/10 A, Mulji House, V.S.Marg, Prabhadevi, Mumbai
p82
sba(i__main__
Place
p83
(dp84
g3
(lp85
VRestaurants
p86
asg6
g57
sg8
VMr. Chow's
p87
sg10
Vhttp://mumbai.burrp.com/listing/mr-chows_prabhadevi_mumbai_restaurants/133830376
p88
sg12
VPrabhadevi
p89
sg14
(lp90
V24334551
p91
aV 24334554
p92
aV 24334558
p93
aV 24334501
p94
aV 9867660789
p95
asg19
g57
sg21
VShop No 5 Mukesh House, Hatiskar Marg, Prabhadevi, Mumbai
p96
sba(i__main__
Place
p97
(dp98
g3
(lp99
VRestaurants
p100
asg6
g57
sg8
VUtsav Pure Veg Restaurant
p101
sg10
Vhttp://mumbai.burrp.com/listing/utsav-pure-veg-restaurant_prabhadevi_mumbai_restaurants/1915165118
p102
sg12
VPrabhadevi
p103
sg14
(lp104
V24327788
p105
aV 24328899
p106
asg19
g57
sg21
VRavindra Natya Mandir, Sayani Marg, Prabhadevi, Mumbai
p107
sba(i__main__
Place
p108
(dp109
g3
(lp110
VRestaurants
p111
asg6
g57
sg8
VPurepur Kolhapur
p112
sg10
Vhttp://mumbai.burrp.com/listing/purepur-kolhapur_prabhadevi_mumbai_restaurants/13315068376
p113
sg12
VPrabhadevi
p114
sg14
(lp115
V24370506
p116
aV 24370507
p117
asg19
g20
sg21
VAgar Bazar, Prabhadevi, Mumbai
p118
sba(i__main__
Place
p119
(dp120
g3
(lp121
VRestaurants
p122
asg6
g33
sg8
VOn the Move
p123
sg10
Vhttp://mumbai.burrp.com/listing/on-the-move_prabhadevi_mumbai_restaurants/168824841
p124
sg12
VPrabhadevi
p125
sg14
(lp126
V24318080
p127
aV 24318181
p128
asg19
g57
sg21
VDedhia Mansion, Veer Savarkar Marg, Prabhadevi, Mumbai
p129
sba(i__main__
Place
p130
(dp131
g3
(lp132
VRestaurants
p133
asg6
g33
sg8
VShree Siddhi Vinayak Refreshments
p134
sg10
Vhttp://mumbai.burrp.com/listing/shree-siddhi-vinayak-refreshments_prabhadevi_mumbai_restaurants/17112660138
p135
sg12
VPrabhadevi
p136
sg14
(lp137
V24225374
p138
asg19
g20
sg21
VGround Floor, Siddhivinayak Society, Veer Savarkar Marg, Ground Floor , Prabhadevi, Mumbai
p139
sba(i__main__
Place
p140
(dp141
g3
(lp142
VRestaurants
p143
asg6
g33
sg8
VShabri
p144
sg10
Vhttp://mumbai.burrp.com/listing/shabri_prabhadevi_mumbai_restaurants/19853811
p145
sg12
VPrabhadevi
p146
sg14
(lp147
V24226883
p148
asg19
g20
sg21
V5, Luis Mansion, V.S Marg, Prabhadevi, Mumbai
p149
sba(i__main__
Place
p150
(dp151
g3
(lp152
VRestaurants
p153
asg6
g33
sg8
VHome Deli
p154
sg10
Vhttp://mumbai.burrp.com/listing/home-deli_prabhadevi_mumbai_restaurants/1271441782
p155
sg12
VPrabhadevi
p156
sg14
(lp157
V24321996
p158
aV 24327750
p159
asg19
g57
sg21
V150, Mankar Bldg, New Prabhadevi, Opp: Prabhadevi Temple, Prabhadevi, Mumbai
p160
sba(i__main__
Place
p161
(dp162
g3
(lp163
VRestaurants
p164
asg6
g33
sg8
VVeg Always Restaurant
p165
sg10
Vhttp://mumbai.burrp.com/listing/veg-always-restaurant_prabhadevi_mumbai_restaurants/17712669732
p166
sg12
VPrabhadevi
p167
sg14
(lp168
V40687722
p169
aV 40687723
p170
aV 40687725
p171
aV 9167047123
p172
asg19
g20
sg21
VGokhale Road, Opposite To Crown Mills, Prabhadevi, Mumbai
p173
sba(i__main__
Place
p174
(dp175
g3
(lp176
VRestaurants
p177
asg6
g57
sg8
VQuick Bite
p178
sg10
Vhttp://mumbai.burrp.com/listing/quick-bite_prabhadevi_mumbai_restaurants/1453747564
p179
sg12
VPrabhadevi
p180
sg14
(lp181
V32207077
p182
aV 32207078
p183
aV 24300231
p184
asg19
g57
sg21
VThree View Co-op Hsg Soc, Appasaheb Marathe Marg, Opp. Mercedes Benz Showroom, Prabhadevi, Mumbai
p185
sba(i__main__
Place
p186
(dp187
g3
(lp188
VRestaurants
p189
asg6
g20
sg8
VSwarajya Restaurant
p190
sg10
Vhttp://mumbai.burrp.com/listing/swarajya-restaurant_prabhadevi_mumbai_restaurants/16712659742
p191
sg12
VPrabhadevi
p192
sg14
(lp193
V24224523
p194
asg19
g57
sg21
V69 Irani Chawl, Gokhale Road, Prabhadevi, Mumbai
p195
sba(i__main__
Place
p196
(dp197
g3
(lp198
VRestaurants
p199
asg6
g20
sg8
VHotel Sai Siddhi
p200
sg10
Vhttp://mumbai.burrp.com/listing/hotel-sai-siddhi_prabhadevi_mumbai_restaurants/15912640950
p201
sg12
VPrabhadevi
p202
sg14
(lp203
V24322278
p204
aV 64463174
p205
aV 9867777787
p206
asg19
g20
sg21
VShop No 5, Nutan Jai Bharat CHS, K G Marg, Prabhadevi, Mumbai
p207
sba(i__main__
Place
p208
(dp209
g3
(lp210
VRestaurants
p211
asg6
g20
sg8
VNavkar Fast Food
p212
sg10
Vhttp://mumbai.burrp.com/listing/navkar-fast-food_prabhadevi_mumbai_restaurants/13112647178
p213
sg12
VPrabhadevi
p214
sg14
(lp215
V24378844
p216
asg19
g20
sg21
VGround Floor, Shilpa Apartments, Shankar Ghanekar Marg, Behind Siddhivinayak Temple, Prabhadevi, Mumbai
p217
sba(i__main__
Place
p218
(dp219
g3
(lp220
VRestaurants
p221
asg6
g20
sg8
VSAI Siddhi Fast Food
p222
sg10
Vhttp://mumbai.burrp.com/listing/sai-siddhi-fast-food_prabhadevi_mumbai_restaurants/19512662514
p223
sg12
VPrabhadevi
p224
sg14
(lp225
V24322278
p226
asg19
g20
sg21
V5 Nutan Jai Bharat Co Operative Building, K G Marg, Prabhadevi, Mumbai
p227
sba(i__main__
Place
p228
(dp229
g3
(lp230
VRestaurants
p231
asg6
g20
sg8
VPrabhadevi Uphar Graha
p232
sg10
Vhttp://mumbai.burrp.com/listing/prabhadevi-uphar-graha_prabhadevi_mumbai_restaurants/11112672198
p233
sg12
VPrabhadevi
p234
sg14
(lp235
V24323422
p236
asg19
g20
sg21
VBotawala Building 2, New Prabhadevi Road, Nagu Sayaji Wadi, Prabhadevi, Mumbai
p237
sba(i__main__
Place
p238
(dp239
g3
(lp240
VRestaurants
p241
asg6
g20
sg8
VHotel Adarsh
p242
sg10
Vhttp://mumbai.burrp.com/listing/hotel-adarsh_prabhadevi_mumbai_restaurants/1964436613
p243
sg12
VPrabhadevi
p244
sg14
(lp245
V24221277
p246
asg19
g20
sg21
VVeer Savarkar Marg, Laxmi Narayan House, Prabhadevi, Mumbai
p247
sba(i__main__
Place
p248
(dp249
g3
(lp250
VRestaurants
p251
asg6
g20
sg8
VSneha Sagar 
p252
sg10
Vhttp://mumbai.burrp.com/listing/sneha-sagar-_prabhadevi_mumbai_restaurants/1884471821
p253
sg12
VPrabhadevi
p254
sg14
(lp255
V24370882
p256
aV 24221277 
p257
asg19
g20
sg21
VGuruprasad, V.S. Road , Prabhadevi, Mumbai
p258
sba(i__main__
Place
p259
(dp260
g3
(lp261
VRestaurants
p262
asg6
g20
sg8
VHotel Gajanan
p263
sg10
Vhttp://mumbai.burrp.com/listing/hotel-gajanan_prabhadevi_mumbai_restaurants/15712640752
p264
sg12
VPrabhadevi
p265
sg14
(lp266
V24328884
p267
asg19
g20
sg21
VShop No 8, RK Irani Chawl, 178 New Prabhadevi Road, Prabhadevi, Mumbai
p268
sba(i__main__
Place
p269
(dp270
g3
(lp271
VRestaurants
p272
asg6
g20
sg8
VVinod Refreshment
p273
sg10
Vhttp://mumbai.burrp.com/listing/vinod-refreshment_prabhadevi_mumbai_restaurants/18912643920
p274
sg12
VPrabhadevi
p275
sg14
(lp276
V24321875
p277
aV 9323370491
p278
asg19
g20
sg21
VDayal Valji Chawl, New Prabhadevi Road, Prabhadevi, Mumbai
p279
sba(i__main__
Place
p280
(dp281
g3
(lp282
VRestaurants
p283
asg6
g20
sg8
VSanket Restaurant & Bar
p284
sg10
Vhttp://mumbai.burrp.com/listing/sanket-restaurant-bar_prabhadevi_mumbai_restaurants/15712658752
p285
sg12
VPrabhadevi
p286
sg14
(lp287
V24334802
p288
aV 9820649849
p289
aV 9821274477
p290
asg19
g20
sg21
VAnant Smruti Society, Veer Nariman Road, Near Fire Brigade, Prabhadevi, Mumbai
p291
sba(i__main__
Place
p292
(dp293
g3
(lp294
VRestaurants
p295
asg6
g20
sg8
VSujay Hotel
p296
sg10
Vhttp://mumbai.burrp.com/listing/sujay-hotel_prabhadevi_mumbai_restaurants/16512659544
p297
sg12
VPrabhadevi
p298
sg14
(lp299
V24338465
p300
aV 24369212
p301
asg19
g20
sg21
V18, Irani Building, Gokhale Road, Sayani Road Circle, Prabhadevi, Mumbai
p302
sba(i__main__
Place
p303
(dp304
g3
(lp305
VRestaurants
p306
asg6
g20
sg8
VShashi Hotel
p307
sg10
Vhttp://mumbai.burrp.com/listing/shashi-hotel_prabhadevi_mumbai_restaurants/17512660534
p308
sg12
VPrabhadevi
p309
sg14
(lp310
V24376978
p311
asg19
g20
sg21
VBhavna Building, Veer Savarkar Marg, Prabhadevi, Mumbai
p312
sba(i__main__
Place
p313
(dp314
g3
(lp315
VRestaurants
p316
asg6
g20
sg8
VHotel Prakash Punjab
p317
sg10
Vhttp://mumbai.burrp.com/listing/hotel-prakash-punjab_prabhadevi_mumbai_restaurants/17113578138
p318
sg12
VPrabhadevi
p319
sg14
(lp320
V24302387
p321
aV 9870218465
p322
asg19
g20
sg21
VDedhia Mansion, V S Marg, Prabhadevi, Mumbai
p323
sba(i__main__
Place
p324
(dp325
g3
(lp326
VRestaurants
p327
asg6
g20
sg8
VKamat's Pure Vegetarian
p328
sg10
Vhttp://mumbai.burrp.com/listing/kamats-pure-vegetarian_prabhadevi_mumbai_restaurants/14518606564
p329
sg12
VPrabhadevi
p330
sg14
(lp331
V66635487
p332
aV 24325925
p333
asg19
g57
sg21
VShop No. 8, 9, 10, Kapadawala Chawl, Sayani Road, Veer Savarkar Marg, Prabhadevi, Mumbai
p334
sba(i__main__
Place
p335
(dp336
g3
(lp337
VRestaurants
p338
asg6
g20
sg8
VHotel Snehsagar
p339
sg10
Vhttp://mumbai.burrp.com/listing/hotel-snehsagar_prabhadevi_mumbai_restaurants/11324174396
p340
sg12
VPrabhadevi
p341
sg14
(lp342
V24370882
p343
asg19
g20
sg21
V Guru Prasad Building, Veer Savarkar Marg, Prabhadevi, Mumbai
p344
sba(i__main__
Place
p345
(dp346
g3
(lp347
VRestaurants
p348
asg6
g20
sg8
VPanchamruth Vrindavan
p349
sg10
Vhttp://mumbai.burrp.com/listing/panchamruth-vrindavan_prabhadevi_mumbai_restaurants/19924263910
p350
sg12
VPrabhadevi
p351
sg14
(lp352
V24304577
p353
asg19
g20
sg21
V3, View Building, Opp. Century BazaarA Marathe Marg, Prabhadevi, Mumbai
p354
sba.