(lp0
(i__main__
Place
p1
(dp2
S'category'
p3
(lp4
VRestaurants
p5
asS'rating'
p6
V0
p7
sS'name'
p8
VShree Ram Hotel
p9
sS'url'
p10
Vhttp://mumbai.burrp.com/listing/shree-ram-hotel_prarthana-samaj-girgaon_mumbai_restaurants/14512675564
p11
sS'region'
p12
VPrarthana Samaj (Girgaon)
p13
sS'phone'
p14
(lp15
V23866017
p16
aV 9870242414
p17
asS'cost'
p18
g7
sS'addr'
p19
V434, Shri Ram Mansion, S V P Road, Prarthana Samaj (Girgaon), Girgaon, Mumbai
p20
sba.