(lp0
(i__main__
Place
p1
(dp2
S'category'
p3
(lp4
VBars & Pubs
p5
aV Restaurants
p6
asS'rating'
p7
V0
p8
sS'name'
p9
VAnjali Bar & Restaurant
p10
sS'url'
p11
Vhttp://mumbai.burrp.com/listing/anjali-bar-restaurant_rajawadi_mumbai_bars-pubs-restaurants/11112717198
p12
sS'region'
p13
VRajawadi
p14
sS'phone'
p15
(lp16
V25157389
p17
asS'cost'
p18
g8
sS'addr'
p19
VShop No 1 & 2, Mukteshwari Bldg, R B Mehta Road, Near Vikrant Circle, Rajawadi, Ghatkopar East, Mumbai
p20
sba.