(lp0
(i__main__
Place
p1
(dp2
S'category'
p3
(lp4
VRestaurants
p5
asS'rating'
p6
V0
p7
sS'name'
p8
VJai Santoshi Mata Restaurant
p9
sS'url'
p10
Vhttp://mumbai.burrp.com/listing/jai-santoshi-mata-restaurant_rasayani_navi-mumbai_restaurants/19913859910
p11
sS'region'
p12
VRasayani
p13
sS'phone'
p14
(lp15
V27412156
p16
aV 9320071005
p17
aV 9820871005
p18
asS'cost'
p19
g7
sS'addr'
p20
VFlat No 58, MIDC Taloja, Rasayani, Panvel, Navi Mumbai
p21
sba.