(lp0
(i__main__
Place
p1
(dp2
S'category'
p3
(lp4
VRestaurants
p5
asS'rating'
p6
V4
p7
sS'name'
p8
VPeshawari
p9
sS'url'
p10
Vhttp://mumbai.burrp.com/listing/peshawari_sahar_mumbai_restaurants/129136980
p11
sS'region'
p12
VSahar
p13
sS'phone'
p14
(lp15
V28303030
p16
asS'cost'
p17
g7
sS'addr'
p18
VSahar, Andheri East, Mumbai
p19
sba(i__main__
Place
p20
(dp21
g3
(lp22
VRestaurants
p23
aV Bars & Pubs
p24
asg6
g7
sg8
VPan Asian
p25
sg10
Vhttp://mumbai.burrp.com/listing/pan-asian_sahar_mumbai_restaurants-bars-pubs/199134910
p26
sg12
VSahar
p27
sg14
(lp28
V28303030
p29
asg17
V3
p30
sg18
VSahar, Andheri East, Mumbai
p31
sba(i__main__
Place
p32
(dp33
g3
(lp34
VRestaurants
p35
asg6
g7
sg8
VThe Glass House
p36
sg10
Vhttp://mumbai.burrp.com/listing/the-glass-house_sahar_mumbai_restaurants/11663693
p37
sg12
VSahar
p38
sg14
(lp39
V66961621
p40
aV 66961624
p41
aV 66961234
p42
asg17
g7
sg18
VSahar Airport Road, Sahar, Andheri East, Mumbai
p43
sba(i__main__
Place
p44
(dp45
g3
(lp46
VRestaurants
p47
asg6
g7
sg8
VThe Brasserie
p48
sg10
Vhttp://mumbai.burrp.com/listing/the-brasserie_sahar_mumbai_restaurants/18070029
p49
sg12
VSahar
p50
sg14
(lp51
V28380000
p52
asg17
g30
sg18
VSahar Airport Road, Andheri (E), Sahar, Andheri East, Mumbai
p53
sba(i__main__
Place
p54
(dp55
g3
(lp56
VRestaurants
p57
asg6
g30
sg8
VDum Pukht
p58
sg10
Vhttp://mumbai.burrp.com/listing/dum-pukht_sahar_mumbai_restaurants/168113841
p59
sg12
VSahar
p60
sg14
(lp61
V28303030
p62
asg17
g7
sg18
VSahar, Andheri East, Mumbai
p63
sba(i__main__
Place
p64
(dp65
g3
(lp66
VRestaurants
p67
asg6
g30
sg8
VStax
p68
sg10
Vhttp://mumbai.burrp.com/listing/stax_sahar_mumbai_restaurants/16859841
p69
sg12
VSahar
p70
sg14
(lp71
V66961234 
p72
aV 66961235   
p73
aV 66961627
p74
aV 66961631
p75
asg17
g7
sg18
VSahar Airport Road, Sahar, Andheri East, Mumbai
p76
sba(i__main__
Place
p77
(dp78
g3
(lp79
VRestaurants
p80
asg6
g7
sg8
VWest View - The Grill Room
p81
sg10
Vhttp://mumbai.burrp.com/listing/west-view---the-grill-room_sahar_mumbai_restaurants/11572594
p82
sg12
VSahar
p83
sg14
(lp84
V28303030
p85
asg17
g30
sg18
VSahar, Andheri East, Mumbai
p86
sba(i__main__
Place
p87
(dp88
g3
(lp89
VRestaurants
p90
asg6
g30
sg8
VCitrus
p91
sg10
Vhttp://mumbai.burrp.com/listing/citrus_sahar_mumbai_restaurants/148111861
p92
sg12
VSahar
p93
sg14
(lp94
V66911359
p95
aV 66911360
p96
asg17
g30
sg18
VAndheri Kurla Road, Sahar, Andheri East, Mumbai
p97
sba(i__main__
Place
p98
(dp99
g3
(lp100
VRestaurants
p101
asg6
g7
sg8
VDakshin
p102
sg10
Vhttp://mumbai.burrp.com/listing/dakshin_sahar_mumbai_restaurants/156112653
p103
sg12
VSahar
p104
sg14
(lp105
V28303030
p106
asg17
g7
sg18
VSahar, Andheri East, Mumbai
p107
sba(i__main__
Place
p108
(dp109
g3
(lp110
VRestaurants
p111
aV Lounges
p112
asg6
g7
sg8
VBombay High
p113
sg10
Vhttp://mumbai.burrp.com/listing/bombay-high_sahar_mumbai_restaurants-lounges/180376029
p114
sg12
VSahar
p115
sg14
(lp116
V28303030
p117
asg17
g7
sg18
VSahar, Andheri East, Mumbai
p118
sba(i__main__
Place
p119
(dp120
g3
(lp121
VRestaurants
p122
asg6
g7
sg8
VBaluchi
p123
sg10
Vhttp://mumbai.burrp.com/listing/baluchi_sahar_mumbai_restaurants/164104445
p124
sg12
VSahar
p125
sg14
(lp126
V66992222
p127
asg17
g7
sg18
VGround Floor, Sahar, Andheri East, Mumbai
p128
sba(i__main__
Place
p129
(dp130
g3
(lp131
VRestaurants
p132
asg6
g30
sg8
VStella
p133
sg10
Vhttp://mumbai.burrp.com/listing/stella_sahar_mumbai_restaurants/163248346
p134
sg12
VSahar
p135
sg14
(lp136
V66911234
p137
aV 66911344
p138
aV 66911345
p139
asg17
V0
p140
sg18
VSahar, Andheri East, Mumbai
p141
sba(i__main__
Place
p142
(dp143
g3
(lp144
VRestaurants
p145
asg6
g30
sg8
VThe Peshwa Pavilion
p146
sg10
Vhttp://mumbai.burrp.com/listing/the-peshwa-pavilion_sahar_mumbai_restaurants/12564584
p147
sg12
VSahar
p148
sg14
(lp149
V28303030
p150
asg17
g30
sg18
VGround Floor, Sahar, Andheri East, Mumbai
p151
sba(i__main__
Place
p152
(dp153
g3
(lp154
VBars & Pubs
p155
aV Restaurants
p156
asg6
g7
sg8
VThe Lobby Lounge
p157
sg10
Vhttp://mumbai.burrp.com/listing/the-lobby-lounge_sahar_mumbai_bars-pubs-restaurants/12264287
p158
sg12
VSahar
p159
sg14
(lp160
V66911355
p161
aV 66911356
p162
aV 66911354
p163
asg17
g7
sg18
VThe Leela, Andheri (E), Sahar, Andheri East, Mumbai
p164
sba(i__main__
Place
p165
(dp166
g3
(lp167
VRestaurants
p168
asg6
V2
p169
sg8
VThe Great Wall
p170
sg10
Vhttp://mumbai.burrp.com/listing/the-great-wall_sahar_mumbai_restaurants/11863891
p171
sg12
VSahar
p172
sg14
(lp173
V66911348
p174
asg17
g30
sg18
VAndheri Kurla Road, Sahar, Andheri East, Mumbai
p175
sba(i__main__
Place
p176
(dp177
g3
(lp178
VRestaurants
p179
asg6
g30
sg8
VJamavar
p180
sg10
Vhttp://mumbai.burrp.com/listing/jamavar_sahar_mumbai_restaurants/161122148
p181
sg12
VSahar
p182
sg14
(lp183
V66911234
p184
aV 66911350
p185
aV 66911351
p186
asg17
g140
sg18
VSahar, Andheri East, Mumbai
p187
sba(i__main__
Place
p188
(dp189
g3
(lp190
VRestaurants
p191
asg6
g30
sg8
VFlames Grills & Barbeque
p192
sg10
Vhttp://mumbai.burrp.com/listing/flames-grills-barbeque_sahar_mumbai_restaurants/1211387188
p193
sg12
VSahar
p194
sg14
(lp195
V28380000
p196
asg17
g30
sg18
VSahar, Andheri East, Mumbai
p197
sba(i__main__
Place
p198
(dp199
g3
(lp200
VRestaurants
p201
asg6
g30
sg8
VVaibhav Veg Restaurant
p202
sg10
Vhttp://mumbai.burrp.com/listing/vaibhav-veg-restaurant_sahar_mumbai_restaurants/1521417257
p203
sg12
VSahar
p204
sg14
(lp205
V26846600
p206
aV 26846888
p207
aV 26835937
p208
asg17
g169
sg18
VOpp. Old Police Lane, Sahar Road, Andheri (E), Sahar, Andheri East, Mumbai
p209
sba(i__main__
Place
p210
(dp211
g3
(lp212
VRestaurants
p213
asg6
g140
sg8
VJanata Vihar Pure Veg
p214
sg10
Vhttp://mumbai.burrp.com/listing/janata-vihar-pure-veg_sahar_mumbai_restaurants/18723614722
p215
sg12
VSahar
p216
sg14
(lp217
V26817232
p218
aV 26817759
p219
asg17
g169
sg18
VShop No.1, Rangoli Complex, Ground Floor, Near Sahar Cargo Complex, Sahar, Andheri East, Mumbai
p220
sba(i__main__
Place
p221
(dp222
g3
(lp223
VRestaurants
p224
asg6
g140
sg8
VShree Shardha Pure Veg
p225
sg10
Vhttp://mumbai.burrp.com/listing/shree-shardha-pure-veg_sahar_mumbai_restaurants/18723686722
p226
sg12
VSahar
p227
sg14
(lp228
V26846135
p229
aV 9930213468
p230
asg17
g169
sg18
VKoldongri, Halwai Nagar, Sahar Road, Sahar, Andheri East, Mumbai
p231
sba(i__main__
Place
p232
(dp233
g3
(lp234
VRestaurants
p235
asg6
g140
sg8
VKinara Family Restaurant
p236
sg10
Vhttp://mumbai.burrp.com/listing/kinara-family-restaurant_sahar_mumbai_restaurants/18723542722
p237
sg12
VSahar
p238
sg14
(lp239
V28253416
p240
aV 32656894
p241
aV 65218144
p242
asg17
g169
sg18
VIndian Oil Road, Off Sahar -Airport Road, Sahar, Andheri East, Mumbai
p243
sba(i__main__
Place
p244
(dp245
g3
(lp246
VRestaurants
p247
asg6
g140
sg8
VTrendz
p248
sg10
Vhttp://mumbai.burrp.com/listing/trendz_sahar_mumbai_restaurants/14266267
p249
sg12
VSahar
p250
sg14
(lp251
V66992222
p252
asg17
g30
sg18
VLocated in Intercontinental - The LaLit, Sahar, Andheri East, Mumbai
p253
sba(i__main__
Place
p254
(dp255
g3
(lp256
VRestaurants
p257
asg6
g140
sg8
VKrishna Lunch Home
p258
sg10
Vhttp://mumbai.burrp.com/listing/krishna-lunch-home_sahar_mumbai_restaurants/12912772980
p259
sg12
VSahar
p260
sg14
(lp261
V28354452
p262
asg17
g169
sg18
VDipak Nivas, Cardinal Gracious Road, Chakala, Sahar, Andheri East, Mumbai
p263
sba(i__main__
Place
p264
(dp265
g3
(lp266
VRestaurants
p267
asg6
g140
sg8
VWoks
p268
sg10
Vhttp://mumbai.burrp.com/listing/woks_sahar_mumbai_restaurants/11772792
p269
sg12
VSahar
p270
sg14
(lp271
V66992222
p272
asg17
g7
sg18
VIntercontinental The Lalit Mumbai, Sahar Airport Road, Andheri (E), Sahar, Andheri East, Mumbai
p273
sba(i__main__
Place
p274
(dp275
g3
(lp276
VRestaurants
p277
asg6
g140
sg8
V24/7
p278
sg10
Vhttp://mumbai.burrp.com/listing/247_sahar_mumbai_restaurants/13074079
p279
sg12
VSahar
p280
sg14
(lp281
V66992222
p282
asg17
g30
sg18
VLocated in Intercontinental - The LaLit, Sahar, Andheri East, Mumbai
p283
sba(i__main__
Place
p284
(dp285
g3
(lp286
VRestaurants
p287
asg6
g140
sg8
VImperial China
p288
sg10
Vhttp://mumbai.burrp.com/listing/imperial-china_sahar_mumbai_restaurants/153121356
p289
sg12
VSahar
p290
sg14
(lp291
V28380000
p292
asg17
g140
sg18
VSahar Airport Road, Ascot Centre, Sahar, Andheri East, Mumbai
p293
sba(i__main__
Place
p294
(dp295
g3
(lp296
VLounges
p297
aV Restaurants
p298
aV Bars & Pubs
p299
asg6
g140
sg8
VLounge Bar
p300
sg10
Vhttp://mumbai.burrp.com/listing/lounge-bar_sahar_mumbai_lounges-restaurants-bars-pubs/154148455
p301
sg12
VSahar
p302
sg14
(lp303
V28380000
p304
aV 29262934
p305
asg17
g140
sg18
VHotel Hilton Mumbai, Sahar Airport Road, Sahar, Andheri East, Mumbai
p306
sba(i__main__
Place
p307
(dp308
g3
(lp309
VBars & Pubs
p310
aV Restaurants
p311
asg6
g140
sg8
VCircles
p312
sg10
Vhttp://mumbai.burrp.com/listing/circles_sahar_mumbai_bars-pubs-restaurants/198359811
p313
sg12
VSahar
p314
sg14
(lp315
V67097777
p316
asg17
g169
sg18
VHotel Solitaire, Sahar Road, Andheri (E), Sahar, Andheri East, Mumbai
p317
sba(i__main__
Place
p318
(dp319
g3
(lp320
VRestaurants
p321
asg6
g140
sg8
VCrystal Lounge
p322
sg10
Vhttp://mumbai.burrp.com/listing/crystal-lounge_sahar_mumbai_restaurants/1201387089
p323
sg12
VSahar
p324
sg14
(lp325
V28380000
p326
asg17
g30
sg18
VLe Royal Meridien, Sahar Airport Road, Andheri (E), Sahar, Andheri East, Mumbai
p327
sba.