(lp0
(i__main__
Place
p1
(dp2
S'category'
p3
(lp4
VRestaurants
p5
asS'rating'
p6
V0
p7
sS'name'
p8
VTandoori Nights Restaurant
p9
sS'url'
p10
Vhttp://mumbai.burrp.com/listing/tandoori-nights-restaurant_seawood-west_navi-mumbai_restaurants/18513867524
p11
sS'region'
p12
VSeawood West
p13
sS'phone'
p14
(lp15
V32000007
p16
asS'cost'
p17
g7
sS'addr'
p18
VFlat No 16, Neel Kanth Apartment, Plot No 31, Sector No 42/A, Near Shreesha Hospital Bus Stop, Seawood West, Nerul West, Navi Mumbai
p19
sba.