(lp0
(i__main__
Place
p1
(dp2
S'category'
p3
(lp4
VRestaurants
p5
asS'rating'
p6
V4
p7
sS'name'
p8
VSwati Snacks
p9
sS'url'
p10
Vhttp://mumbai.burrp.com/listing/swati-snacks_tardeo_mumbai_restaurants/18461425
p11
sS'region'
p12
VTardeo
p13
sS'phone'
p14
(lp15
V65808405
p16
aV 65808406
p17
aV 23524994
p18
asS'cost'
p19
V2
p20
sS'addr'
p21
V248 Karai Estate, Tardeo Road, Opposite Bhatia Hospital, Tardeo, Mumbai
p22
sba(i__main__
Place
p23
(dp24
g3
(lp25
VRestaurants
p26
asg6
g7
sg8
VMainland China
p27
sg10
Vhttp://mumbai.burrp.com/listing/mainland-china_tardeo_mumbai_restaurants/1364952673
p28
sg12
VTardeo
p29
sg14
(lp30
V32221038 
p31
aV 66150364
p32
asg19
V3
p33
sg21
VShop No.1, 2nd Floor, Block 'A', SoBo Central Mall, Crossroad, Tardeo, Mumbai
p34
sba(i__main__
Place
p35
(dp36
g3
(lp37
VRestaurants
p38
asg6
g7
sg8
VOh! Calcutta
p39
sg10
Vhttp://mumbai.burrp.com/listing/oh-calcutta_tardeo_mumbai_restaurants/184133425
p40
sg12
VTardeo
p41
sg14
(lp42
V23539114
p43
aV 65806216
p44
aV 23534372
p45
aV 23533115
p46
asg19
g33
sg21
VHotel Rosewood, Tulsiwadi Lane, Tardeo, Mumbai
p47
sba(i__main__
Place
p48
(dp49
g3
(lp50
VFast Food Shops
p51
aV Dessert Shops
p52
aV Restaurants
p53
aV Take Away Shops
p54
aV Cafes
p55
asg6
g7
sg8
VPronto
p56
sg10
Vhttp://mumbai.burrp.com/listing/pronto_tardeo_mumbai_fast-food-shops-dessert-shops-restaurants/154139455
p57
sg12
VTardeo
p58
sg14
(lp59
V23515565
p60
aV 23513644
p61
aV 64555100
p62
asg19
g20
sg21
VShop No. 8, Maniyar Building 
p63
sba(i__main__
Place
p64
(dp65
g3
(lp66
VBanquet Halls
p67
aV Restaurants
p68
asg6
g33
sg8
VNanumal Bhojraj Restaurant
p69
sg10
Vhttp://mumbai.burrp.com/listing/nanumal-bhojraj-restaurant_tardeo_mumbai_banquet-halls-restaurants/1873355722
p70
sg12
VTardeo
p71
sg14
(lp72
V23819788
p73
aV 32154759
p74
aV 23880306
p75
aV 32154760
p76
asg19
g20
sg21
VShop No. 8 & 9, 183 Tardeo Road, Tardeo, Mumbai
p77
sba(i__main__
Place
p78
(dp79
g3
(lp80
VRestaurants
p81
asg6
g7
sg8
VChinese Palace
p82
sg10
Vhttp://mumbai.burrp.com/listing/chinese-palace_tardeo_mumbai_restaurants/142111267
p83
sg12
VTardeo
p84
sg14
(lp85
V
p86
aV 23529069
p87
aV 66627088
p88
aV 66627089
p89
asg19
g20
sg21
VBombay AC Market, 1st Floor, Tardeo, Mumbai
p90
sba(i__main__
Place
p91
(dp92
g3
(lp93
VRestaurants
p94
asg6
g7
sg8
VMaji Sagar
p95
sg10
Vhttp://mumbai.burrp.com/listing/maji-sagar_tardeo_mumbai_restaurants/123127386
p96
sg12
VTardeo
p97
sg14
(lp98
V24930416
p99
aV 24950087
p100
asg19
V0
p101
sg21
VShop No 1&2, Rajani Mahal, Opposite Tardeo AC Market, Tardeo, Mumbai
p102
sba(i__main__
Place
p103
(dp104
g3
(lp105
VRestaurants
p106
asg6
g33
sg8
VOriginal Chung Fa Chinese Restaurant 
p107
sg10
Vhttp://mumbai.burrp.com/listing/original-chung-fa-chinese-restaurant-_tardeo_mumbai_restaurants/1494512960
p108
sg12
VTardeo
p109
sg14
(lp110
V23519383
p111
aV 64168600 
p112
asg19
g101
sg21
V137-A212, Bldg., Avabai Kasinath Street, Tardeo , Tardeo, Mumbai
p113
sba(i__main__
Place
p114
(dp115
g3
(lp116
VRestaurants
p117
asg6
g7
sg8
VKamat Sweets & Snacks
p118
sg10
Vhttp://mumbai.burrp.com/listing/kamat-sweets-snacks_tardeo_mumbai_restaurants/16941940
p119
sg12
VTardeo
p120
sg14
(lp121
V23856593
p122
asg19
g101
sg21
V1, Nowroj Mansion, Tardeo, Mumbai
p123
sba(i__main__
Place
p124
(dp125
g3
(lp126
VRestaurants
p127
asg6
g33
sg8
VShree Krishna
p128
sg10
Vhttp://mumbai.burrp.com/listing/shree-krishna_tardeo_mumbai_restaurants/1706039
p129
sg12
VTardeo
p130
sg14
(lp131
V23867544
p132
aV 23827326
p133
asg19
g101
sg21
VNew Municipal Buiding, Jobanputra Compound, Nana Chowk, Tardeo, Mumbai
p134
sba(i__main__
Place
p135
(dp136
g3
(lp137
VRestaurants
p138
aV Cafes
p139
asg6
g101
sg8
VUnder The Banyan Tree
p140
sg10
Vhttp://mumbai.burrp.com/listing/under-the-banyan-tree_tardeo_mumbai_restaurants-cafes/1644946445
p141
sg12
VTardeo
p142
sg14
(lp143
V9821621451
p144
asg19
g20
sg21
VInch by inch Gym, A/c Market, 6th Floor, Film Centre, Tardeo, Mumbai
p145
sba(i__main__
Place
p146
(dp147
g3
(lp148
VRestaurants
p149
asg6
g101
sg8
VJyoti Restaurant
p150
sg10
Vhttp://mumbai.burrp.com/listing/jyoti-restaurant_tardeo_mumbai_restaurants/11713203792
p151
sg12
VTardeo
p152
sg14
(lp153
V23510199
p154
aV 23521288
p155
aV 23534291
p156
asg19
g101
sg21
VPlot No.92-A, Zainab Manzil, Tardeo Road, Tardeo, Mumbai
p157
sba(i__main__
Place
p158
(dp159
g3
(lp160
VRestaurants
p161
asg6
g101
sg8
VGold Coins Restaurant & Bar
p162
sg10
Vhttp://mumbai.burrp.com/listing/gold-coins-restaurant-bar_tardeo_mumbai_restaurants/1321325277
p163
sg12
VTardeo
p164
sg14
(lp165
V23514225
p166
aV 23529828
p167
aV 9821086578
p168
asg19
g101
sg21
V6 Arun Chambers, Next To AC Market, Tardeo, Mumbai
p169
sba(i__main__
Place
p170
(dp171
g3
(lp172
VRestaurants
p173
asg6
g101
sg8
VSamudra Bar & Restaurant
p174
sg10
Vhttp://mumbai.burrp.com/listing/samudra-bar-restaurant_tardeo_mumbai_restaurants/1281351881
p175
sg12
VTardeo
p176
sg14
(lp177
V23005011
p178
asg19
g101
sg21
VMotilal Mansion, Opp ST Depot, Tardeo, Mumbai
p179
sba(i__main__
Place
p180
(dp181
g3
(lp182
VRestaurants
p183
asg6
g101
sg8
VPrema Sagar
p184
sg10
Vhttp://mumbai.burrp.com/listing/prema-sagar_tardeo_mumbai_restaurants/1251360584
p185
sg12
VTardeo
p186
sg14
(lp187
V25372089
p188
asg19
g101
sg21
VAnand Chambers, Almeda Road, Panchpakhadi, Thane(W), Mumba, Tardeo, Mumbai
p189
sba(i__main__
Place
p190
(dp191
g3
(lp192
VRestaurants
p193
asg6
g101
sg8
VMahableshwar Bar And Restaurant
p194
sg10
Vhttp://mumbai.burrp.com/listing/mahableshwar-bar-and-restaurant_tardeo_mumbai_restaurants/14913170960
p195
sg12
VTardeo
p196
sg14
(lp197
V23513137
p198
aV 9892161441
p199
aV 9892174740
p200
asg19
g101
sg21
VShop No 4, D F Building, A C Market, Tardeo, Mumbai
p201
sba(i__main__
Place
p202
(dp203
g3
(lp204
VRestaurants
p205
asg6
g101
sg8
VNew High Class Restaurant
p206
sg10
Vhttp://mumbai.burrp.com/listing/new-high-class-restaurant_tardeo_mumbai_restaurants/19113175118
p207
sg12
VTardeo
p208
sg14
(lp209
V23530792
p210
asg19
g101
sg21
V24, Ali Building, Wadia Street, Tardeo Junction, Tardeo, Mumbai
p211
sba(i__main__
Place
p212
(dp213
g3
(lp214
VRestaurants
p215
asg6
g101
sg8
VAshish Wines
p216
sg10
Vhttp://mumbai.burrp.com/listing/ashish-wines_tardeo_mumbai_restaurants/12513186584
p217
sg12
VTardeo
p218
sg14
(lp219
V22961011
p220
aV 32771924
p221
asg19
g101
sg21
VShop No 6 Rajani Mahal, Tardeo, Mumbai
p222
sba(i__main__
Place
p223
(dp224
g3
(lp225
VRestaurants
p226
asg6
g101
sg8
VMahabaleshwar Lunch Home
p227
sg10
Vhttp://mumbai.burrp.com/listing/mahabaleshwar-lunch-home_tardeo_mumbai_restaurants/14913197960
p228
sg12
VTardeo
p229
sg14
(lp230
V23513137
p231
asg19
g101
sg21
VTardeo Road, Near Firm Centre, Tardeo, Mumbai
p232
sba(i__main__
Place
p233
(dp234
g3
(lp235
VRestaurants
p236
asg6
g101
sg8
VHotel Pramod Bar And Restaurant
p237
sg10
Vhttp://mumbai.burrp.com/listing/hotel-pramod-bar-and-restaurant_tardeo_mumbai_restaurants/12713204782
p238
sg12
VTardeo
p239
sg14
(lp240
V23529061
p241
aV 23531423
p242
aV 9920762763
p243
asg19
g101
sg21
VShop No 147/B, Adam Mahal, Haji Ali Road, Tardeo, Mumbai
p244
sba.