(lp0
(i__main__
Place
p1
(dp2
S'category'
p3
(lp4
VBakery Shops
p5
aV Restaurants
p6
asS'rating'
p7
V0
p8
sS'name'
p9
VSunshine Restaurant Stores And Beer Bar
p10
sS'url'
p11
Vhttp://mumbai.burrp.com/listing/sunshine-restaurant-stores-and-beer-bar_thakurdwar_mumbai_bakery-shops-restaurants/12913213980
p12
sS'region'
p13
VThakurdwar
p14
sS'phone'
p15
(lp16
V22096923
p17
asS'cost'
p18
g8
sS'addr'
p19
V300/302 , Thakurdwar Corner, Thakurdwar, Kalbadevi, Mumbai
p20
sba.