(lp0
(i__main__
Place
p1
(dp2
S'category'
p3
(lp4
VRestaurants
p5
aV Hotels
p6
asS'rating'
p7
V5
p8
sS'name'
p9
VForest Falls
p10
sS'url'
p11
Vhttp://mumbai.burrp.com/listing/forest-falls_vangani_thane_restaurants-hotels/12114779188
p12
sS'region'
p13
VVangani
p14
sS'phone'
p15
(lp16
V26463876
p17
aV 9765594779
p18
aV 9820468855
p19
asS'cost'
p20
V0
p21
sS'addr'
p22
VKudsavre Village, Vangani East , Vangani, Thane
p23
sba.