(lp0
(i__main__
Place
p1
(dp2
S'category'
p3
(lp4
VRestaurants
p5
asS'rating'
p6
V0
p7
sS'name'
p8
VVenue Family Restaurant & Bar 
p9
sS'url'
p10
Vhttp://mumbai.burrp.com/listing/venue-family-restaurant-bar-_virar-e_thane_restaurants/1496816960
p11
sS'region'
p12
VVirar (E)
p13
sS'phone'
p14
(lp15
V9167259667
p16
aV 9619919801
p17
asS'cost'
p18
V2
p19
sS'addr'
p20
VChorghe Tower, Phool Pada Road, Virar (E), Thane
p21
sba.