(lp0
(i__main__
Place
p1
(dp2
S'category'
p3
(lp4
VRestaurants
p5
asS'rating'
p6
V0
p7
sS'name'
p8
VHotel Trupti
p9
sS'url'
p10
Vhttp://mumbai.burrp.com/listing/hotel-trupti_vishnu-nagar_thane_restaurants/15114845158
p11
sS'region'
p12
VVishnu Nagar
p13
sS'phone'
p14
(lp15
V2482637
p16
asS'cost'
p17
g7
sS'addr'
p18
VRaigad Building, M G Chowk, Vishnu Nagar, Dombivli, Thane
p19
sba.