(lp0
(i__main__
Place
p1
(dp2
S'category'
p3
(lp4
VRestaurants
p5
asS'rating'
p6
V3
p7
sS'name'
p8
VPakwaan
p9
sS'url'
p10
Vhttp://mumbai.burrp.com/listing/pakwaan_agripada_mumbai_restaurants/1537222356
p11
sS'region'
p12
VAgripada
p13
sS'phone'
p14
(lp15
V23050950
p16
aV 32441900
p17
asS'cost'
p18
V0
p19
sS'addr'
p20
VClassic Tower , Dr Nair Road, Agripada, Byculla, Mumbai
p21
sba(i__main__
Place
p22
(dp23
g3
(lp24
VRestaurants
p25
asg6
g19
sg8
VICE N Spice Restaurant
p26
sg10
Vhttp://mumbai.burrp.com/listing/ice-n-spice-restaurant_byculla_mumbai_restaurants/1658330544
p27
sg12
VByculla
p28
sg14
(lp29
V23073763
p30
asg18
g19
sg20
VShop No 9, Block No A, Star Mansion, Clare Road, Byculla, Mumbai
p31
sba(i__main__
Place
p32
(dp33
g3
(lp34
VRestaurants
p35
asg6
g19
sg8
VShanbhag Hotel
p36
sg10
Vhttp://mumbai.burrp.com/listing/shanbhag-hotel_byculla_mumbai_restaurants/1418337168
p37
sg12
VByculla
p38
sg14
(lp39
V23096395
p40
asg18
V2
p41
sg20
VShop No 61/ 63, Hari Niwas, K K Road, Byculla, Mumbai
p42
sba(i__main__
Place
p43
(dp44
g3
(lp45
VRestaurants
p46
asg6
g19
sg8
VGoan Cart
p47
sg10
Vhttp://mumbai.burrp.com/listing/goan-cart_agripada_mumbai_restaurants/1517222158
p48
sg12
VAgripada
p49
sg14
(lp50
V
p51
aV 9820534076
p52
aV 9820756797
p53
asg18
g19
sg20
VSundar Lane, Agripada, Byculla, Mumbai
p54
sba(i__main__
Place
p55
(dp56
g3
(lp57
VRestaurants
p58
asg6
g19
sg8
VGanesh Bhuvan Hindu Hotel
p59
sg10
Vhttp://mumbai.burrp.com/listing/ganesh-bhuvan-hindu-hotel_byculla_mumbai_restaurants/1438319366
p60
sg12
VByculla
p61
sg14
(lp62
V23778049
p63
asg18
g19
sg20
VShop No 164/A , Love Lane, Byculla, Mumbai
p64
sba(i__main__
Place
p65
(dp66
g3
(lp67
VRestaurants
p68
asg6
g19
sg8
VHotel Bharat
p69
sg10
Vhttp://mumbai.burrp.com/listing/hotel-bharat_byculla_mumbai_restaurants/1518320158
p70
sg12
VByculla
p71
sg14
(lp72
V23087661
p73
asg18
g19
sg20
VBuilding No 42 D, Dayalji Velji Chwal, Keshavrao Khadye Marg, Jacob Circle, Byculla, Mumbai
p74
sba(i__main__
Place
p75
(dp76
g3
(lp77
VRestaurants
p78
asg6
g19
sg8
VPritam Malwani
p79
sg10
Vhttp://mumbai.burrp.com/listing/pritam-malwani_byculla_mumbai_restaurants/1558320554
p80
sg12
VByculla
p81
sg14
(lp82
V65737607
p83
aV 9223364645
p84
asg18
g19
sg20
V64, Irani Chawl, Dr Ambedkar Road, Byculla, Mumbai
p85
sba(i__main__
Place
p86
(dp87
g3
(lp88
VRestaurants
p89
asg6
g19
sg8
VModern Family Resturant
p90
sg10
Vhttp://mumbai.burrp.com/listing/modern-family-resturant_byculla_mumbai_restaurants/1758322534
p91
sg12
VByculla
p92
sg14
(lp93
V23076260
p94
aV 23099961
p95
aV 9821451195
p96
asg18
g19
sg20
VByculla House, Sir JJ  Road, Byculla, Mumbai
p97
sba(i__main__
Place
p98
(dp99
g3
(lp100
VRestaurants
p101
asg6
g19
sg8
VRaja Veg Restaurant
p102
sg10
Vhttp://mumbai.burrp.com/listing/raja-veg-restaurant_byculla_mumbai_restaurants/1238326386
p103
sg12
VByculla
p104
sg14
(lp105
V23748986
p106
aV 23791234
p107
asg18
g19
sg20
V8/9/10, Patanwala Mahal, Patanwala Marg, Byculla, Mumbai
p108
sba(i__main__
Place
p109
(dp110
g3
(lp111
VRestaurants
p112
asg6
g19
sg8
VNew Sunrise Restaurant
p113
sg10
Vhttp://mumbai.burrp.com/listing/new-sunrise-restaurant_byculla_mumbai_restaurants/1298326980
p114
sg12
VByculla
p115
sg14
(lp116
V23725308
p117
aV 64112221
p118
asg18
g19
sg20
V172/194, Arsiwala Mansion, Dr Ambedkar Road, Near Palace Cinema, Byculla, Mumbai
p119
sba(i__main__
Place
p120
(dp121
g3
(lp122
VRestaurants
p123
asg6
g19
sg8
VNagraj Bar & Restaurant
p124
sg10
Vhttp://mumbai.burrp.com/listing/nagraj-bar-restaurant_byculla_mumbai_restaurants/1318327178
p125
sg12
VByculla
p126
sg14
(lp127
V23725429
p128
asg18
g19
sg20
VShop No 28, Byculla, Mumbai
p129
sba(i__main__
Place
p130
(dp131
g3
(lp132
VRestaurants
p133
asg6
g19
sg8
VNagraj Lunch Home
p134
sg10
Vhttp://mumbai.burrp.com/listing/nagraj-lunch-home_byculla_mumbai_restaurants/1338327376
p135
sg12
VByculla
p136
sg14
(lp137
V23725429
p138
aV 9820213131
p139
asg18
g19
sg20
VIsmail Building, Byculla, Mumbai
p140
sba(i__main__
Place
p141
(dp142
g3
(lp143
VRestaurants
p144
asg6
g19
sg8
VAishwarya Restaurant & Bar
p145
sg10
Vhttp://mumbai.burrp.com/listing/aishwarya-restaurant-bar_byculla_mumbai_restaurants/1458328564
p146
sg12
VByculla
p147
sg14
(lp148
V23725429
p149
asg18
g19
sg20
VHaji Ismail Gani Building, Dr Ambedkar Road, Byculla, Mumbai
p150
sba(i__main__
Place
p151
(dp152
g3
(lp153
VRestaurants
p154
asg6
g19
sg8
VAshish Restaurant
p155
sg10
Vhttp://mumbai.burrp.com/listing/ashish-restaurant_byculla_mumbai_restaurants/1278335782
p156
sg12
VByculla
p157
sg14
(lp158
V64203006
p159
aV 9324372446
p160
asg18
g19
sg20
VShop No 6/7, Kashinath Building, Saath Rasta, Jacob Circle, Byculla, Mumbai
p161
sba(i__main__
Place
p162
(dp163
g3
(lp164
VRestaurants
p165
asg6
g19
sg8
VBara Handi Restaurant
p166
sg10
Vhttp://mumbai.burrp.com/listing/bara-handi-restaurant_byculla_mumbai_restaurants/1378336772
p167
sg12
VByculla
p168
sg14
(lp169
V23459994
p170
asg18
g19
sg20
V45 Gujar Street, Bohri Mohalla, Byculla, Mumbai
p171
sba(i__main__
Place
p172
(dp173
g3
(lp174
VRestaurants
p175
aV Fast Food Shops
p176
asg6
g19
sg8
VSabri Restaurant
p177
sg10
Vhttp://mumbai.burrp.com/listing/sabri-restaurant_byculla_mumbai_restaurants-fast-food-shops/1438337366
p178
sg12
VByculla
p179
sg14
(lp180
V23099912
p181
aV 9699609244
p182
asg18
g19
sg20
VIrfan Mansion, Sabu Siddhi Marg, Jacob Cirle, Momin Pura, Byculla, Mumbai
p183
sba(i__main__
Place
p184
(dp185
g3
(lp186
VRestaurants
p187
asg6
g19
sg8
VGovindas Shree Durga Bhuvan
p188
sg10
Vhttp://mumbai.burrp.com/listing/govindas-shree-durga-bhuvan_byculla_mumbai_restaurants/1478337762
p189
sg12
VByculla
p190
sg14
(lp191
V23776524
p192
aV 9869281692
p193
asg18
g19
sg20
VShop No 155, Ramchand Bhatt Marg, Byculla, Mumbai
p194
sba(i__main__
Place
p195
(dp196
g3
(lp197
VRestaurants
p198
asg6
g19
sg8
VImpresario Entertainment & Hospitality Pvt Ltd
p199
sg10
Vhttp://mumbai.burrp.com/listing/impresario-entertainment-hospitality-pvt-ltd_byculla_mumbai_restaurants/1498337960
p200
sg12
VByculla
p201
sg14
(lp202
V23099349
p203
asg18
g19
sg20
VAmerican Express Bakery House, 1st Floor, Clare Road, Byculla, Mumbai
p204
sba(i__main__
Place
p205
(dp206
g3
(lp207
VRestaurants
p208
asg6
g19
sg8
VHotel Meghdoot
p209
sg10
Vhttp://mumbai.burrp.com/listing/hotel-meghdoot_byculla_mumbai_restaurants/1958342514
p210
sg12
VByculla
p211
sg14
(lp212
V23757475
p213
asg18
g19
sg20
VShop No 8, Ground Floor, Alexander Terrace, Sir J J M G Road, Near Bayculla Railway Station , Byculla, Mumbai
p214
sba(i__main__
Place
p215
(dp216
g3
(lp217
VRestaurants
p218
asg6
g19
sg8
VKrishna Punjab
p219
sg10
Vhttp://mumbai.burrp.com/listing/krishna-punjab_byculla_mumbai_restaurants/1278344782
p220
sg12
VByculla
p221
sg14
(lp222
V23714873
p223
aV 23720234
p224
asg18
g19
sg20
VHomaiya Bldg, Dr Ambedkar Rd, Byculla, Mumbai
p225
sba(i__main__
Place
p226
(dp227
g3
(lp228
VRestaurants
p229
asg6
g19
sg8
VKing Of Iran Restaurant
p230
sg10
Vhttp://mumbai.burrp.com/listing/king-of-iran-restaurant_byculla_mumbai_restaurants/1378345772
p231
sg12
VByculla
p232
sg14
(lp233
V23755769
p234
aV 9892688838
p235
asg18
g19
sg20
VShop No 9, Yusuf Chambers, Jijabai Marg, Near Palace Cinema , Byculla, Mumbai
p236
sba(i__main__
Place
p237
(dp238
g3
(lp239
VRestaurants
p240
asg6
g19
sg8
VPingara Restaurant & Bar
p241
sg10
Vhttp://mumbai.burrp.com/listing/pingara-restaurant-bar_byculla_mumbai_restaurants/1418346168
p242
sg12
VByculla
p243
sg14
(lp244
V23778136
p245
asg18
g19
sg20
VRam Nagar, Dr Ambedkar Road, Byculla, Mumbai
p246
sba(i__main__
Place
p247
(dp248
g3
(lp249
VRestaurants
p250
asg6
g19
sg8
VPearl Restaurant
p251
sg10
Vhttp://mumbai.burrp.com/listing/pearl-restaurant_byculla_mumbai_restaurants/1478346762
p252
sg12
VByculla
p253
sg14
(lp254
V23710717
p255
aV 23710724
p256
aV 23717717
p257
aV 23717799
p258
asg18
g19
sg20
VC/O Nagina Hotel, 53, Dr Ambedkar Road, Near Victoria Garden, Byculla, Mumbai
p259
sba(i__main__
Place
p260
(dp261
g3
(lp262
VBars & Pubs
p263
aV Restaurants
p264
asg6
g19
sg8
VTriveni Restaurant
p265
sg10
Vhttp://mumbai.burrp.com/listing/triveni-restaurant_byculla_mumbai_bars-pubs-restaurants/1578347752
p266
sg12
VByculla
p267
sg14
(lp268
V23711572
p269
asg18
g19
sg20
VS R C Building, Dr B A Road, Byculla, Mumbai
p270
sba(i__main__
Place
p271
(dp272
g3
(lp273
VRestaurants
p274
asg6
g19
sg8
VTilak Arogya Bhavan
p275
sg10
Vhttp://mumbai.burrp.com/listing/tilak-arogya-bhavan_byculla_mumbai_restaurants/1638348346
p276
sg12
VByculla
p277
sg14
(lp278
V23727785
p279
asg18
g19
sg20
VShop No 80 And 84, Garden Clock Tower, Byculla, Mumbai
p280
sba.