(lp0
(i__main__
Place
p1
(dp2
S'category'
p3
(lp4
VRestaurants
p5
asS'rating'
p6
V5
p7
sS'name'
p8
VHotel Kadhai
p9
sS'url'
p10
Vhttp://mumbai.burrp.com/listing/hotel-kadhai_airoli_navi-mumbai_restaurants/13322502376
p11
sS'region'
p12
VAiroli
p13
sS'phone'
p14
(lp15
V9920695981
p16
aV 9833597527
p17
asS'cost'
p18
V2
p19
sS'addr'
p20
VKalpana Park Building, Shop No. 9, Sector 9, Airoli, Navi Mumbai
p21
sba(i__main__
Place
p22
(dp23
g3
(lp24
VBars & Pubs
p25
aV Restaurants
p26
asg6
g19
sg8
VHotel Garam Masala
p27
sg10
Vhttp://mumbai.burrp.com/listing/hotel-garam-masala_airoli_navi-mumbai_bars-pubs-restaurants/14713692762
p28
sg12
VAiroli
p29
sg14
(lp30
V27603011
p31
aV 27693070
p32
aV 9323919389
p33
aV 9833815673
p34
aV  9833650624
p35
asg18
g19
sg20
VOm Apartments, Shop No. 1/2/3, Sector 9, Airoli, Navi Mumbai
p36
sba(i__main__
Place
p37
(dp38
g3
(lp39
VRestaurants
p40
asg6
V0
p41
sg8
VHotel Sai Nidhi
p42
sg10
Vhttp://mumbai.burrp.com/listing/hotel-sai-nidhi_airoli_navi-mumbai_restaurants/13113691178
p43
sg12
VAiroli
p44
sg14
(lp45
V27790887
p46
aV 27790056
p47
aV 27797373
p48
aV 27798383
p49
asg18
g19
sg20
VPanchsheel Plaza, Plot No. 36, Sector 5, Airoli, Navi Mumbai
p50
sba(i__main__
Place
p51
(dp52
g3
(lp53
VRestaurants
p54
aV Outdoor Caterers
p55
asg6
g41
sg8
VNavratree
p56
sg10
Vhttp://mumbai.burrp.com/listing/navratree_airoli_navi-mumbai_restaurants-outdoor-caterers/12922501980
p57
sg12
VAiroli
p58
sg14
(lp59
V27797071
p60
aV 27797172
p61
aV 9820047172
p62
aV 9820637172
p63
asg18
g19
sg20
VShree Sai Darshan Co-Operative Housing Society, Sector 4, Airoli, Navi Mumbai
p64
sba(i__main__
Place
p65
(dp66
g3
(lp67
VRestaurants
p68
asg6
g41
sg8
VHotel Sai Sagar
p69
sg10
Vhttp://mumbai.burrp.com/listing/hotel-sai-sagar_airoli_navi-mumbai_restaurants/18713678722
p70
sg12
VAiroli
p71
sg14
(lp72
V27792651
p73
aV 9930036610
p74
aV 9892330520
p75
asg18
g19
sg20
VPlot No. 4/A, Sector 16, Airoli, Navi Mumbai
p76
sba(i__main__
Place
p77
(dp78
g3
(lp79
VRestaurants
p80
aV Outdoor Caterers
p81
asg6
g41
sg8
VNav Durga Family Restaurant
p82
sg10
Vhttp://mumbai.burrp.com/listing/nav-durga-family-restaurant_airoli_navi-mumbai_restaurants-outdoor-caterers/12522501584
p83
sg12
VAiroli
p84
sg14
(lp85
V27795858
p86
aV 65272841
p87
asg18
g19
sg20
VSagar Vihar VHS, Shop No. 8, Plot No. 58, Sector 19, Airoli, Navi Mumbai
p88
sba(i__main__
Place
p89
(dp90
g3
(lp91
VRestaurants
p92
asg6
g41
sg8
VAbhinandan
p93
sg10
Vhttp://mumbai.burrp.com/listing/abhinandan_airoli_navi-mumbai_restaurants/17913686930
p94
sg12
VAiroli
p95
sg14
(lp96
V27790717
p97
aV 27794027
p98
asg18
g19
sg20
VPanchasheel Commercial Complex, Plot No. 87, Sector 4, Airoli, Navi Mumbai
p99
sba(i__main__
Place
p100
(dp101
g3
(lp102
VOutdoor Caterers
p103
aV Restaurants
p104
asg6
g41
sg8
VHotel Sai Prakash
p105
sg10
Vhttp://mumbai.burrp.com/listing/hotel-sai-prakash_airoli_navi-mumbai_outdoor-caterers-restaurants/18513678524
p106
sg12
VAiroli
p107
sg14
(lp108
V27796444
p109
aV 27793543
p110
aV 27795320
p111
aV 9768181419
p112
asg18
g19
sg20
VRajkamal Building, Ground Floor, Sector-3, Airoli, Navi Mumbai
p113
sba(i__main__
Place
p114
(dp115
g3
(lp116
VRestaurants
p117
aV Outdoor Caterers
p118
asg6
g41
sg8
VKhatta Meetha
p119
sg10
Vhttp://mumbai.burrp.com/listing/khatta-meetha_airoli_navi-mumbai_restaurants-outdoor-caterers/12722501782
p120
sg12
VAiroli
p121
sg14
(lp122
V32258777
p123
aV 9029358777
p124
asg18
g19
sg20
VShivshankar Plaza 2, Shop No. 10, Plot No. 1, Sector 7, Airoli, Navi Mumbai
p125
sba(i__main__
Place
p126
(dp127
g3
(lp128
VRestaurants
p129
asg6
g41
sg8
VHotel Priya Kailash 
p130
sg10
Vhttp://mumbai.burrp.com/listing/hotel-priya-kailash-_airoli_navi-mumbai_restaurants/16532576544
p131
sg12
VAiroli
p132
sg14
(lp133
V9867160318
p134
asg18
g19
sg20
VShop No 2081, Shiv Colony Road, Sector No 1, Airoli Naka, Airoli, Navi Mumbai
p135
sba(i__main__
Place
p136
(dp137
g3
(lp138
VRestaurants
p139
asg6
g41
sg8
VSayabaa
p140
sg10
Vhttp://mumbai.burrp.com/listing/sayabaa_airoli_navi-mumbai_restaurants/19522490514
p141
sg12
VAiroli
p142
sg14
(lp143
V9664258888
p144
aV 9664259999
p145
asg18
g19
sg20
VSai Pooja Apartment, Sector 9, Airoli, Navi Mumbai
p146
sba(i__main__
Place
p147
(dp148
g3
(lp149
VRestaurants
p150
aV Bars & Pubs
p151
asg6
g41
sg8
VIndian Tadkaa
p152
sg10
Vhttp://mumbai.burrp.com/listing/indian-tadkaa_airoli_navi-mumbai_restaurants-bars-pubs/18713687722
p153
sg12
VAiroli
p154
sg14
(lp155
V27602026
p156
aV 27602027
p157
aV 65152028
p158
asg18
g41
sg20
VShiv Shankar Plaza 2, 1st Floor, Plot No. 1, Sector 7, Airoli, Navi Mumbai
p159
sba(i__main__
Place
p160
(dp161
g3
(lp162
VOutdoor Caterers
p163
aV Restaurants
p164
asg6
g41
sg8
VSai Garden Family Restaurant
p165
sg10
Vhttp://mumbai.burrp.com/listing/sai-garden-family-restaurant_airoli_navi-mumbai_outdoor-caterers-restaurants/11913689990
p166
sg12
VAiroli
p167
sg14
(lp168
V27790055
p169
aV 27791075
p170
aV 9221892500
p171
asg18
g19
sg20
VRajkamal Building, Shop No. 10 To 15, Sector 3, Airoli, Navi Mumbai
p172
sba(i__main__
Place
p173
(dp174
g3
(lp175
VRestaurants
p176
asg6
g41
sg8
VSai Nidhi Restaurant & Bar
p177
sg10
Vhttp://mumbai.burrp.com/listing/sai-nidhi-restaurant-bar_airoli_navi-mumbai_restaurants/12113690188
p178
sg12
VAiroli
p179
sg14
(lp180
V27790057
p181
aV 27790888
p182
asg18
g19
sg20
VPanchsheel Vishal Complex, Plot No. 105, 1st Floor, Sector 5 , Airoli, Navi Mumbai
p183
sba(i__main__
Place
p184
(dp185
g3
(lp186
VRestaurants
p187
asg6
g41
sg8
VVaibhav Sip-N-Dine
p188
sg10
Vhttp://mumbai.burrp.com/listing/vaibhav-sip-n-dine_airoli_navi-mumbai_restaurants/17715279732
p189
sg12
VAiroli
p190
sg14
(lp191
V9702029857
p192
asg18
g41
sg20
VMadhuri Building, Plot No. 1, Shop No.10-14, Sector - 6, Airoli, Navi Mumbai
p193
sba(i__main__
Place
p194
(dp195
g3
(lp196
VBanquet Halls
p197
aV Restaurants
p198
aV Outdoor Caterers
p199
asg6
g41
sg8
VPriyanka Family Restaurant
p200
sg10
Vhttp://mumbai.burrp.com/listing/priyanka-family-restaurant_airoli_navi-mumbai_banquet-halls-restaurants-outdoor-caterers/12122501188
p201
sg12
VAiroli
p202
sg14
(lp203
V27793785
p204
aV 27790045
p205
aV 9821369234
p206
aV 9172545333
p207
asg18
g19
sg20
VSector 2, Airoli, Navi Mumbai
p208
sba(i__main__
Place
p209
(dp210
g3
(lp211
VRestaurants
p212
asg6
g41
sg8
VVijaya Restaurant
p213
sg10
Vhttp://mumbai.burrp.com/listing/vijaya-restaurant_airoli_navi-mumbai_restaurants/16533854544
p214
sg12
VAiroli
p215
sg14
(lp216
V27604485
p217
aV 27604489
p218
aV 9702029853
p219
asg18
g19
sg20
VShop No 2 & 3, Plot No 6/7, Sai Pooja Apartment, Sector No 9, Airoli, Navi Mumbai
p220
sba.