(lp0
(i__main__
Place
p1
(dp2
S'category'
p3
(lp4
VRestaurants
p5
asS'rating'
p6
V0
p7
sS'name'
p8
VKolhapur Family Restaurant
p9
sS'url'
p10
Vhttp://mumbai.burrp.com/listing/kolhapur-family-restaurant_charai_thane_restaurants/14514142564
p11
sS'region'
p12
VCharai
p13
sS'phone'
p14
(lp15
V25447575
p16
asS'cost'
p17
g7
sS'addr'
p18
VShop No 1/2/3, Balaji Niwas, Smt N Dighe Chowk, Talao Pali, Charai, Thane West, Thane
p19
sba.