(lp0
(i__main__
Place
p1
(dp2
S'category'
p3
(lp4
VRestaurants
p5
asS'rating'
p6
V5
p7
sS'name'
p8
VShiv Krishna
p9
sS'url'
p10
Vhttp://mumbai.burrp.com/listing/shiv-krishna_opera-house_mumbai_restaurants/12555584
p11
sS'region'
p12
VOpera House
p13
sS'phone'
p14
(lp15
V23823966
p16
aV 23813882
p17
aV 23813884
p18
asS'cost'
p19
V2
p20
sS'addr'
p21
V55, Ranchhod Bhuvan, JSS Rd, Opera House, Charni Road, Mumbai
p22
sba(i__main__
Place
p23
(dp24
g3
(lp25
VRestaurants
p26
asg6
V4
p27
sg8
VGolden Star Thali
p28
sg10
Vhttp://mumbai.burrp.com/listing/golden-star-thali_charni-road_mumbai_restaurants/116117693
p29
sg12
VCharni Road
p30
sg14
(lp31
V23631983
p32
aV 23671952
p33
asg19
g20
sg21
V330, Raja Rammohan Roy Road, Opposite Charni Road Station, Charni Road, Mumbai
p34
sba(i__main__
Place
p35
(dp36
g3
(lp37
VBars & Pubs
p38
aV Restaurants
p39
asg6
V3
p40
sg8
VKarma 
p41
sg10
Vhttp://mumbai.burrp.com/listing/karma-_opera-house_mumbai_bars-pubs-restaurants/148147861
p42
sg12
VOpera House
p43
sg14
(lp44
V23617171
p45
aV 40287111
p46
aV 40287116
p47
asg19
g20
sg21
VPlot No.534, SVP Road, Opera House, Charni Road, Mumbai
p48
sba(i__main__
Place
p49
(dp50
g3
(lp51
VBars & Pubs
p52
aV Restaurants
p53
asg6
g27
sg8
VLittle Italy
p54
sg10
Vhttp://mumbai.burrp.com/listing/little-italy_charni-road_mumbai_bars-pubs-restaurants/1145067495
p55
sg12
VCharni Road
p56
sg14
(lp57
V23870052
p58
aV 23870053
p59
aV 23870054
p60
aV 23870055
p61
asg19
g20
sg21
V265/267, Raja Ram Mohan Roy Road, Girgaum, Charni Road, Mumbai
p62
sba(i__main__
Place
p63
(dp64
g3
(lp65
VRestaurants
p66
asg6
g40
sg8
VShree Krishna
p67
sg10
Vhttp://mumbai.burrp.com/listing/shree-krishna_opera-house_mumbai_restaurants/13256277
p68
sg12
VOpera House
p69
sg14
(lp70
V23821117
p71
aV 23865798
p72
aV 23821116
p73
aV 23859822
p74
asg19
g20
sg21
V524, SV Road, Girgaum, Opera House, Charni Road, Mumbai
p75
sba(i__main__
Place
p76
(dp77
g3
(lp78
VCafes
p79
aV Restaurants
p80
asg6
g7
sg8
VSamrat Cafe
p81
sg10
Vhttp://mumbai.burrp.com/listing/samrat-cafe_charni-road_mumbai_cafes-restaurants/1371235772
p82
sg12
VCharni Road
p83
sg14
(lp84
V23683429
p85
aV 23664632
p86
asg19
V0
p87
sg21
VGround Floor, Back Bay View Building, 3 New Queens Road, Girgaum, Charni Road, Mumbai
p88
sba(i__main__
Place
p89
(dp90
g3
(lp91
VRestaurants
p92
asg6
g40
sg8
VGreens Restaurant
p93
sg10
Vhttp://mumbai.burrp.com/listing/greens-restaurant_charni-road_mumbai_restaurants/1951475514
p94
sg12
VCharni Road
p95
sg14
(lp96
V23878787
p97
aV 23856600
p98
asg19
g87
sg21
VOpposite Imperial Theatre, Lamington Road, Girgaum, Charni Road, Mumbai
p99
sba(i__main__
Place
p100
(dp101
g3
(lp102
VRestaurants
p103
asg6
g20
sg8
VNew Wave
p104
sg10
Vhttp://mumbai.burrp.com/listing/new-wave_charni-road_mumbai_restaurants/1916983118
p105
sg12
VCharni Road
p106
sg14
(lp107
V23642204
p108
asg19
g87
sg21
VD/39, Dariya Vihar, N A Purandare Marg, Chowpatty, Girgaum, Charni Road, Mumbai
p109
sba(i__main__
Place
p110
(dp111
g3
(lp112
VRestaurants
p113
asg6
g87
sg8
VAsraya Veg Restaurant
p114
sg10
Vhttp://mumbai.burrp.com/listing/asraya-veg-restaurant_charni-road_mumbai_restaurants/1878413722
p115
sg12
VCharni Road
p116
sg14
(lp117
V23872651
p118
aV 23889669
p119
asg19
g87
sg21
VShop No 4, Gordhandas Building, J S S Road, Girgaon, Charni Road, Mumbai
p120
sba(i__main__
Place
p121
(dp122
g3
(lp123
VRestaurants
p124
asg6
g87
sg8
VGokuldham
p125
sg10
Vhttp://mumbai.burrp.com/listing/gokuldham_charni-road_mumbai_restaurants/1914436118
p126
sg12
VCharni Road
p127
sg14
(lp128
V23821298
p129
aV 65006303
p130
aV 66362148
p131
asg19
g20
sg21
VKhetwadi Main Road, SVP Road, Girgaum, Charni Road, Mumbai
p132
sba(i__main__
Place
p133
(dp134
g3
(lp135
VRestaurants
p136
asg6
g87
sg8
VVasant Bhuvan
p137
sg10
Vhttp://mumbai.burrp.com/listing/vasant-bhuvan_charni-road_mumbai_restaurants/1155400594
p138
sg12
VCharni Road
p139
sg14
(lp140
V23821953
p141
aV 66132016
p142
asg19
g87
sg21
V399/399A, Manek Chambers, Lamington Road, Charni Road, Mumbai
p143
sba(i__main__
Place
p144
(dp145
g3
(lp146
VRestaurants
p147
asg6
g87
sg8
VBellissima
p148
sg10
Vhttp://mumbai.burrp.com/listing/bellissima_charni-road_mumbai_restaurants/176105633
p149
sg12
VCharni Road
p150
sg14
(lp151
V23617171
p152
asg19
g20
sg21
V534, S V P Road, Opera House, Girgaum, Charni Road, Mumbai
p153
sba(i__main__
Place
p154
(dp155
g3
(lp156
VRestaurants
p157
asg6
g87
sg8
VKhana Khazana
p158
sg10
Vhttp://mumbai.burrp.com/listing/khana-khazana_charni-road_mumbai_restaurants/1944454415
p159
sg12
VCharni Road
p160
sg14
(lp161
V30028147
p162
aV 23668147
p163
asg19
g87
sg21
V275, Premji Bhavan, R.R. Roy Road., Charni Road, Mumbai
p164
sba(i__main__
Place
p165
(dp166
g3
(lp167
VRestaurants
p168
asg6
g87
sg8
VShree Ram Restaurant 
p169
sg10
Vhttp://mumbai.burrp.com/listing/shree-ram-restaurant-_charni-road_mumbai_restaurants/1374475772
p170
sg12
VCharni Road
p171
sg14
(lp172
V23866017 
p173
aV 9870242414
p174
asg19
g87
sg21
V434, Shree Ram Mansion, S.V.P. Road, Prathana Samaj , Charni Road, Mumbai
p175
sba(i__main__
Place
p176
(dp177
g3
(lp178
VRestaurants
p179
aV Bars & Pubs
p180
asg6
g87
sg8
VKuteer
p181
sg10
Vhttp://mumbai.burrp.com/listing/kuteer_opera-house_mumbai_restaurants-bars-pubs/1795397930
p182
sg12
VOpera House
p183
sg14
(lp184
V23878990
p185
aV 9867307944
p186
aV 9320625560
p187
asg19
g20
sg21
V32, Kennedy Bridge, Opera House, Charni Road, Mumbai
p188
sba(i__main__
Place
p189
(dp190
g3
(lp191
VRestaurants
p192
asg6
g87
sg8
VNivedita Hotel
p193
sg10
Vhttp://mumbai.burrp.com/listing/nivedita-hotel_charni-road_mumbai_restaurants/1618411148
p194
sg12
VCharni Road
p195
sg14
(lp196
V23828934
p197
asg19
g87
sg21
VAradhana Building, Charni Road, Mumbai
p198
sba(i__main__
Place
p199
(dp200
g3
(lp201
VRestaurants
p202
asg6
g87
sg8
VAdarsh Mahal Hotel
p203
sg10
Vhttp://mumbai.burrp.com/listing/adarsh-mahal-hotel_charni-road_mumbai_restaurants/1718412138
p204
sg12
VCharni Road
p205
sg14
(lp206
V22415001
p207
aV 23864241
p208
aV 66359329
p209
asg19
g87
sg21
V1st Floor, Building No 474, Ladi Bazar, Maulana Azad Road, Charni Road, Mumbai
p210
sba(i__main__
Place
p211
(dp212
g3
(lp213
VRestaurants
p214
asg6
g87
sg8
VAyodhya Restaurant
p215
sg10
Vhttp://mumbai.burrp.com/listing/ayodhya-restaurant_charni-road_mumbai_restaurants/1818413128
p216
sg12
VCharni Road
p217
sg14
(lp218
V23809117
p219
aV 65257615
p220
asg19
g87
sg21
V409 , Dr D B Marg, Charni Road, Mumbai
p221
sba(i__main__
Place
p222
(dp223
g3
(lp224
VRestaurants
p225
aV Cafes
p226
asg6
g87
sg8
VCafe Apsara
p227
sg10
Vhttp://mumbai.burrp.com/listing/cafe-apsara_charni-road_mumbai_restaurants-cafes/1678429742
p228
sg12
VCharni Road
p229
sg14
(lp230
V23819361
p231
aV 23888525
p232
asg19
g87
sg21
VAlfred Cinema Building, Falkan Road, Charni Road, Mumbai
p233
sba(i__main__
Place
p234
(dp235
g3
(lp236
VRestaurants
p237
asg6
g87
sg8
VZelam Pure Veg Restaurant
p238
sg10
Vhttp://mumbai.burrp.com/listing/zelam-pure-veg-restaurant_charni-road_mumbai_restaurants/1218434188
p239
sg12
VCharni Road
p240
sg14
(lp241
V23828894
p242
aV 9867330912
p243
asg19
g87
sg21
VShop No 1, Hirabaugh Building, C P Tank Circle, Charni Road, Mumbai
p244
sba(i__main__
Place
p245
(dp246
g3
(lp247
VRestaurants
p248
asg6
g87
sg8
VAbdulla Haji Mohammed Restaurant
p249
sg10
Vhttp://mumbai.burrp.com/listing/abdulla-haji-mohammed-restaurant_opera-house_mumbai_restaurants/17512462534
p250
sg12
VOpera House
p251
sg14
(lp252
V23809584
p253
asg19
g87
sg21
V34/36, Atmaram Building , Pavwala Street, Opera House, Charni Road, Mumbai
p254
sba.