(lp0
(i__main__
Place
p1
(dp2
S'category'
p3
(lp4
VRestaurants
p5
aV Bars & Pubs
p6
asS'rating'
p7
V0
p8
sS'name'
p9
VSai Nidhi Family Restaurant & Bar
p10
sS'url'
p11
Vhttp://mumbai.burrp.com/listing/sai-nidhi-family-restaurant-bar_airoli-w_navi-mumbai_restaurants-bars-pubs/1995453910
p12
sS'region'
p13
VAiroli (W)
p14
sS'phone'
p15
(lp16
V27790057
p17
aV 27790888
p18
asS'cost'
p19
V2
p20
sS'addr'
p21
V105 Panchsheel Vishal Complex, 1st Floor, Sector 5, Airoli (W), Navi Mumbai
p22
sba.