(lp0
(i__main__
Place
p1
(dp2
S'category'
p3
(lp4
VRestaurants
p5
asS'rating'
p6
V0
p7
sS'name'
p8
VSai Darshan Restaurant & Bar
p9
sS'url'
p10
Vhttp://mumbai.burrp.com/listing/sai-darshan-restaurant-bar_chembur-naka_mumbai_restaurants/19322616316
p11
sS'region'
p12
VChembur Naka
p13
sS'phone'
p14
(lp15
V25276297
p16
asS'cost'
p17
g7
sS'addr'
p18
VSion Trombey Road, Chembur Naka, Chembur, Mumbai
p19
sba.