(lp0
(i__main__
Place
p1
(dp2
S'category'
p3
(lp4
VRestaurants
p5
asS'rating'
p6
V0
p7
sS'name'
p8
VVishwaraj Restaurant & Bar
p9
sS'url'
p10
Vhttp://mumbai.burrp.com/listing/vishwaraj-restaurant-bar_chinch-bunder_mumbai_restaurants/1278632782
p11
sS'region'
p12
VChinch Bunder
p13
sS'phone'
p14
(lp15
V23726766
p16
aV 9867424350
p17
asS'cost'
p18
g7
sS'addr'
p19
V112, Purshottam Building, K N Road, Dongri, Chinch Bunder, Masjid Bunder, Mumbai
p20
sba.