(lp0
(i__main__
Place
p1
(dp2
S'category'
p3
(lp4
VRestaurants
p5
asS'rating'
p6
V0
p7
sS'name'
p8
VSpicy Flame Restaurant
p9
sS'url'
p10
Vhttp://mumbai.burrp.com/listing/spicy-flame-restaurant_chincholi-naka_mumbai_restaurants/1478634762
p11
sS'region'
p12
VChincholi Naka
p13
sS'phone'
p14
(lp15
V32229101
p16
aV 9768004666
p17
aV 9820234702
p18
aV 9820234706
p19
asS'cost'
p20
g7
sS'addr'
p21
VShop No 2/3, Ganga Niwas, Link Road, Chincholi Naka, Malad West, Mumbai
p22
sba.