(lp0
(i__main__
Place
p1
(dp2
S'category'
p3
(lp4
VRestaurants
p5
asS'rating'
p6
V0
p7
sS'name'
p8
VKebab Express
p9
sS'url'
p10
Vhttp://mumbai.burrp.com/listing/kebab-express_ambarnath-w_thane_restaurants/1195517990
p11
sS'region'
p12
VAmbarnath (W)
p13
sS'phone'
p14
(lp15
V9022621135
p16
aV 8983390210
p17
aV 3239457
p18
asS'cost'
p19
g7
sS'addr'
p20
VPanvelkar Plaza, SVP Road, Ambarnath (W), Thane
p21
sba.