(lp0
(i__main__
Place
p1
(dp2
S'category'
p3
(lp4
VRestaurants
p5
asS'rating'
p6
V0
p7
sS'name'
p8
VHotel Beach Side
p9
sS'url'
p10
Vhttp://mumbai.burrp.com/listing/hotel-beach-side_dahanu_thane_restaurants/17114145138
p11
sS'region'
p12
VDahanu
p13
sS'phone'
p14
(lp15
V223376
p16
aV 224476
p17
asS'cost'
p18
g7
sS'addr'
p19
VThakur Wadi, Narpad Beach, Dahanu Road, Dahanu, Thane
p20
sba.