(lp0
(i__main__
Place
p1
(dp2
S'category'
p3
(lp4
VRestaurants
p5
asS'rating'
p6
V0
p7
sS'name'
p8
VHotel Uma
p9
sS'url'
p10
Vhttp://mumbai.burrp.com/listing/hotel-uma_daulat-nagar_mumbai_restaurants/1879349722
p11
sS'region'
p12
VDaulat Nagar
p13
sS'phone'
p14
(lp15
V28929554
p16
aV 28946067
p17
asS'cost'
p18
g7
sS'addr'
p19
VS V Road, Anand Nagar , Daulat Nagar, Borivali East, Mumbai
p20
sba.