(lp0
(i__main__
Place
p1
(dp2
S'category'
p3
(lp4
VRestaurants
p5
asS'rating'
p6
V0
p7
sS'name'
p8
VHotel Trupti
p9
sS'url'
p10
Vhttp://mumbai.burrp.com/listing/hotel-trupti_vishnu-nagar_thane_restaurants/15114845158
p11
sS'region'
p12
VVishnu Nagar
p13
sS'phone'
p14
(lp15
V2482637
p16
asS'cost'
p17
g7
sS'addr'
p18
VRaigad Building, M G Chowk, Vishnu Nagar, Dombivli, Thane
p19
sba(i__main__
Place
p20
(dp21
g3
(lp22
VRestaurants
p23
asg6
g7
sg8
VHotel Dwarka
p24
sg10
Vhttp://mumbai.burrp.com/listing/hotel-dwarka_dombivli_thane_restaurants/15714152752
p25
sg12
VDombivli
p26
sg14
(lp27
V2484542
p28
asg17
g7
sg18
VEverest House Building, Dindayal Road, Dombivli, Thane
p29
sba(i__main__
Place
p30
(dp31
g3
(lp32
VRestaurants
p33
asg6
g7
sg8
VHotel Shri Seena Palace
p34
sg10
Vhttp://mumbai.burrp.com/listing/hotel-shri-seena-palace_dombivli_thane_restaurants/15914152950
p35
sg12
VDombivli
p36
sg14
(lp37
V25375943
p38
aV 65772566
p39
asg17
g7
sg18
VSamata Nagar, Pokhran Road No 1, Dombivli, Thane
p40
sba(i__main__
Place
p41
(dp42
g3
(lp43
VRestaurants
p44
asg6
g7
sg8
VSunny Restaurant
p45
sg10
Vhttp://mumbai.burrp.com/listing/sunny-restaurant_dombivli_thane_restaurants/16114153148
p46
sg12
VDombivli
p47
sg14
(lp48
V2455067
p49
asg17
g7
sg18
VTai Pingle Chowk, Tilak Road, Dombivli, Thane
p50
sba(i__main__
Place
p51
(dp52
g3
(lp53
VRestaurants
p54
asg6
g7
sg8
VHotel Vishal
p55
sg10
Vhttp://mumbai.burrp.com/listing/hotel-vishal_dombivli_thane_restaurants/15714161752
p56
sg12
VDombivli
p57
sg14
(lp58
V
p59
aV 9867457364
p60
asg17
g7
sg18
VManpada Road, Dombivli, Thane
p61
sba(i__main__
Place
p62
(dp63
g3
(lp64
VRestaurants
p65
asg6
g7
sg8
VRK Chinese Food
p66
sg10
Vhttp://mumbai.burrp.com/listing/rk-chinese-food_dombivli_thane_restaurants/16114162148
p67
sg12
VDombivli
p68
sg14
(lp69
V2491149
p70
asg17
g7
sg18
VDevi Chowk, Dombivli, Thane
p71
sba(i__main__
Place
p72
(dp73
g3
(lp74
VRestaurants
p75
asg6
g7
sg8
VSurabhi Restaurant & Bar
p76
sg10
Vhttp://mumbai.burrp.com/listing/surabhi-restaurant-bar_dombivli_thane_restaurants/19114165118
p77
sg12
VDombivli
p78
sg14
(lp79
V2860434
p80
aV 2861582
p81
asg17
g7
sg18
V1st Floor, Radheshyam Building, Ram Nagar , Chittaranjandas Road, Kelkar Cross Road, Dombivli, Thane
p82
sba(i__main__
Place
p83
(dp84
g3
(lp85
VRestaurants
p86
asg6
g7
sg8
VDhoova The Sheesha Hut
p87
sg10
Vhttp://mumbai.burrp.com/listing/dhoova-the-sheesha-hut_dombivli_thane_restaurants/17914172930
p88
sg12
VDombivli
p89
sg14
(lp90
V8080212345
p91
aV 9833781313
p92
aV 3199991
p93
asg17
g7
sg18
VDwibedi Bhavan, Sagaon, Manpada Road, Dombivli, Thane
p94
sba(i__main__
Place
p95
(dp96
g3
(lp97
VRestaurants
p98
asg6
g7
sg8
VSurabhi Bar And Restaurant
p99
sg10
Vhttp://mumbai.burrp.com/listing/surabhi-bar-and-restaurant_dombivli_thane_restaurants/19714183712
p100
sg12
VDombivli
p101
sg14
(lp102
V2860434
p103
aV 2861582
p104
asg17
g7
sg18
V1st Floor, Dwarka Palace, Kelkar Cross Road, Ram Nagar, Near Chittaranjandas Road, Dombivli, Thane
p105
sba(i__main__
Place
p106
(dp107
g3
(lp108
VRestaurants
p109
asg6
g7
sg8
VModerns Kitchens
p110
sg10
Vhttp://mumbai.burrp.com/listing/moderns-kitchens_dombivli_thane_restaurants/16314189346
p111
sg12
VDombivli
p112
sg14
(lp113
V2426659
p114
aV 2452442
p115
aV 2801000
p116
aV 5690473
p117
asg17
g7
sg18
VGround Floor, Ratna Niwas, Nehru Road, Dombivli, Thane
p118
sba(i__main__
Place
p119
(dp120
g3
(lp121
VRestaurants
p122
asg6
g7
sg8
VKakas Kitchen
p123
sg10
Vhttp://mumbai.burrp.com/listing/kakas-kitchen_dombivli_thane_restaurants/13914195970
p124
sg12
VDombivli
p125
sg14
(lp126
g59
aV 9320714514
p127
aV 9323834532
p128
aV 9920492125
p129
asg17
g7
sg18
VPandurang Wadi, Maitri Building, Manpada Road, Dombivli, Thane
p130
sba(i__main__
Place
p131
(dp132
g3
(lp133
VRestaurants
p134
asg6
g7
sg8
VPavilion Restaurant
p135
sg10
Vhttp://mumbai.burrp.com/listing/pavilion-restaurant_dombivli_thane_restaurants/15914197950
p136
sg12
VDombivli
p137
sg14
(lp138
V2426287
p139
aV 2452106
p140
asg17
g7
sg18
V1st Floor, Dombivali Gymkhana, Phase 1, MIDC , Near MIDC Jakat Naka, Dombivli, Thane
p141
sba(i__main__
Place
p142
(dp143
g3
(lp144
VRestaurants
p145
asg6
g7
sg8
VThe Legend
p146
sg10
Vhttp://mumbai.burrp.com/listing/the-legend_dombivli_thane_restaurants/16914198940
p147
sg12
VDombivli
p148
sg14
(lp149
V2426659
p150
aV 9820376667
p151
asg17
g7
sg18
VPhadke Road, Dombivli, Thane
p152
sba(i__main__
Place
p153
(dp154
g3
(lp155
VRestaurants
p156
asg6
g7
sg8
VThe Legend
p157
sg10
Vhttp://mumbai.burrp.com/listing/the-legend_dombivli_thane_restaurants/17114199138
p158
sg12
VDombivli
p159
sg14
(lp160
V2426659
p161
aV 9820376667
p162
asg17
g7
sg18
VPhadke Road, Dombivli, Thane
p163
sba.