(lp0
(i__main__
Place
p1
(dp2
S'category'
p3
(lp4
VRestaurants
p5
asS'rating'
p6
V0
p7
sS'name'
p8
VAshirwad Restaurant & Bar
p9
sS'url'
p10
Vhttp://mumbai.burrp.com/listing/ashirwad-restaurant-bar_fanaswadi_mumbai_restaurants/1319416178
p11
sS'region'
p12
VFanaswadi
p13
sS'phone'
p14
(lp15
V22081953
p16
asS'cost'
p17
g7
sS'addr'
p18
VShop No 35, Fanaswadi, Girgaon, Mumbai
p19
sba.